ARM GAS  C:\Users\ADMIN\AppData\Local\Temp\ccUstEG3.s 			page 1


   1              		.cpu cortex-m3
   2              		.arch armv7-m
   3              		.fpu softvfp
   4              		.eabi_attribute 20, 1
   5              		.eabi_attribute 21, 1
   6              		.eabi_attribute 23, 3
   7              		.eabi_attribute 24, 1
   8              		.eabi_attribute 25, 1
   9              		.eabi_attribute 26, 1
  10              		.eabi_attribute 30, 1
  11              		.eabi_attribute 34, 1
  12              		.eabi_attribute 18, 4
  13              		.file	"mpu6050.c"
  14              		.text
  15              	.Ltext0:
  16              		.cfi_sections	.debug_frame
  17              		.section	.text.MPU6050_ReadWhoAmI,"ax",%progbits
  18              		.align	1
  19              		.global	MPU6050_ReadWhoAmI
  20              		.syntax unified
  21              		.thumb
  22              		.thumb_func
  24              	MPU6050_ReadWhoAmI:
  25              	.LVL0:
  26              	.LFB68:
  27              		.file 1 "Core/Src/mpu6050.c"
   1:Core/Src/mpu6050.c **** #include "mpu6050.h"
   2:Core/Src/mpu6050.c **** 
   3:Core/Src/mpu6050.c **** status_t MPU6050_ReadWhoAmI(I2C_HandleTypeDef *hi2c, MPU6050_t *mpu, uint8_t is_high_addr, uint8_t 
   4:Core/Src/mpu6050.c **** {
  28              		.loc 1 4 1 view -0
  29              		.cfi_startproc
  30              		@ args = 0, pretend = 0, frame = 0
  31              		@ frame_needed = 0, uses_anonymous_args = 0
  32              		.loc 1 4 1 is_stmt 0 view .LVU1
  33 0000 00B5     		push	{lr}
  34              		.cfi_def_cfa_offset 4
  35              		.cfi_offset 14, -4
  36 0002 85B0     		sub	sp, sp, #20
  37              		.cfi_def_cfa_offset 24
  38 0004 1A46     		mov	r2, r3
  39              	.LVL1:
   5:Core/Src/mpu6050.c ****     HAL_I2C_Mem_Read(hi2c, mpu->address, (uint8_t)MPU6050_REG_WHO_AM_I, 1, buffer, 1, MPU6050_DEFAU
  40              		.loc 1 5 5 is_stmt 1 view .LVU2
  41 0006 0978     		ldrb	r1, [r1]	@ zero_extendqisi2
  42              	.LVL2:
  43              		.loc 1 5 5 is_stmt 0 view .LVU3
  44 0008 4FF47A73 		mov	r3, #1000
  45              	.LVL3:
  46              		.loc 1 5 5 view .LVU4
  47 000c 0293     		str	r3, [sp, #8]
  48 000e 0123     		movs	r3, #1
  49 0010 0193     		str	r3, [sp, #4]
  50 0012 0092     		str	r2, [sp]
  51 0014 7522     		movs	r2, #117
  52              	.LVL4:
  53              		.loc 1 5 5 view .LVU5
ARM GAS  C:\Users\ADMIN\AppData\Local\Temp\ccUstEG3.s 			page 2


  54 0016 FFF7FEFF 		bl	HAL_I2C_Mem_Read
  55              	.LVL5:
   6:Core/Src/mpu6050.c ****     return STATUS_OK;
  56              		.loc 1 6 5 is_stmt 1 view .LVU6
   7:Core/Src/mpu6050.c **** }
  57              		.loc 1 7 1 is_stmt 0 view .LVU7
  58 001a 0020     		movs	r0, #0
  59 001c 05B0     		add	sp, sp, #20
  60              		.cfi_def_cfa_offset 4
  61              		@ sp needed
  62 001e 5DF804FB 		ldr	pc, [sp], #4
  63              		.cfi_endproc
  64              	.LFE68:
  66              		.section	.text.MPU6050_SetSampleRate,"ax",%progbits
  67              		.align	1
  68              		.global	MPU6050_SetSampleRate
  69              		.syntax unified
  70              		.thumb
  71              		.thumb_func
  73              	MPU6050_SetSampleRate:
  74              	.LVL6:
  75              	.LFB70:
   8:Core/Src/mpu6050.c **** 
   9:Core/Src/mpu6050.c **** status_t MPU6050_Init(I2C_HandleTypeDef *hi2c, MPU6050_t* mpu, MPU6050_Handle_t handle , uint8_t is
  10:Core/Src/mpu6050.c **** {
  11:Core/Src/mpu6050.c ****     uint8_t tmp_byte;
  12:Core/Src/mpu6050.c ****     uint8_t check_buffer;
  13:Core/Src/mpu6050.c **** 
  14:Core/Src/mpu6050.c ****     MPU6050_ReadWhoAmI(hi2c, mpu, is_high_addr, &check_buffer);
  15:Core/Src/mpu6050.c **** 
  16:Core/Src/mpu6050.c ****     /* Check WHO_AM_I value */
  17:Core/Src/mpu6050.c ****     if (check_buffer == (0x68 << is_high_addr))
  18:Core/Src/mpu6050.c ****     {
  19:Core/Src/mpu6050.c ****         // TODO: Implement intialization process
  20:Core/Src/mpu6050.c **** 
  21:Core/Src/mpu6050.c ****         /* Wake-up routine */
  22:Core/Src/mpu6050.c ****         tmp_byte = 0x00;
  23:Core/Src/mpu6050.c ****         HAL_I2C_Mem_Write(hi2c, mpu->address, (uint8_t)MPU6050_REG_PWR_MGMT_1, 1, &tmp_byte, 1, MPU
  24:Core/Src/mpu6050.c **** 
  25:Core/Src/mpu6050.c ****         /* Set the sample rate */
  26:Core/Src/mpu6050.c ****         MPU6050_SetSampleRate(hi2c, mpu, handle.rate_div);
  27:Core/Src/mpu6050.c ****         /* Set the gyroscope range */
  28:Core/Src/mpu6050.c ****         MPU6050_SetGyroscope(hi2c, mpu, handle.gyro_range);
  29:Core/Src/mpu6050.c ****         mpu->gyro_scaling_factor = 0;
  30:Core/Src/mpu6050.c ****         /* Set the accelerometer range */
  31:Core/Src/mpu6050.c ****         MPU6050_SetAccelerometer(hi2c, mpu, handle.accel_range); 
  32:Core/Src/mpu6050.c **** 
  33:Core/Src/mpu6050.c ****         return STATUS_OK;
  34:Core/Src/mpu6050.c ****     }
  35:Core/Src/mpu6050.c ****     
  36:Core/Src/mpu6050.c ****     return STATUS_FAIL;
  37:Core/Src/mpu6050.c **** }
  38:Core/Src/mpu6050.c **** 
  39:Core/Src/mpu6050.c **** status_t MPU6050_SetSampleRate(I2C_HandleTypeDef *hi2c, MPU6050_t* mpu, MPU6050_SampleRateDiv_t rat
  40:Core/Src/mpu6050.c **** {
  76              		.loc 1 40 1 is_stmt 1 view -0
  77              		.cfi_startproc
ARM GAS  C:\Users\ADMIN\AppData\Local\Temp\ccUstEG3.s 			page 3


  78              		@ args = 0, pretend = 0, frame = 8
  79              		@ frame_needed = 0, uses_anonymous_args = 0
  80              		.loc 1 40 1 is_stmt 0 view .LVU9
  81 0000 00B5     		push	{lr}
  82              		.cfi_def_cfa_offset 4
  83              		.cfi_offset 14, -4
  84 0002 87B0     		sub	sp, sp, #28
  85              		.cfi_def_cfa_offset 32
  41:Core/Src/mpu6050.c ****     uint8_t tmp_byte = (uint8_t)rate_div;
  86              		.loc 1 41 5 is_stmt 1 view .LVU10
  87              		.loc 1 41 13 is_stmt 0 view .LVU11
  88 0004 8DF81720 		strb	r2, [sp, #23]
  42:Core/Src/mpu6050.c **** 
  43:Core/Src/mpu6050.c ****     // Write the SMPRT_DIV setting to the register
  44:Core/Src/mpu6050.c ****     HAL_I2C_Mem_Write(hi2c, mpu->address, (uint8_t)MPU6050_REG_SMPRT_DIV, 1, &tmp_byte, 1, MPU6050_
  89              		.loc 1 44 5 is_stmt 1 view .LVU12
  90 0008 0978     		ldrb	r1, [r1]	@ zero_extendqisi2
  91              	.LVL7:
  92              		.loc 1 44 5 is_stmt 0 view .LVU13
  93 000a 4FF47A73 		mov	r3, #1000
  94 000e 0293     		str	r3, [sp, #8]
  95 0010 0123     		movs	r3, #1
  96 0012 0193     		str	r3, [sp, #4]
  97 0014 0DF11702 		add	r2, sp, #23
  98              	.LVL8:
  99              		.loc 1 44 5 view .LVU14
 100 0018 0092     		str	r2, [sp]
 101 001a 1922     		movs	r2, #25
 102              	.LVL9:
 103              		.loc 1 44 5 view .LVU15
 104 001c FFF7FEFF 		bl	HAL_I2C_Mem_Write
 105              	.LVL10:
  45:Core/Src/mpu6050.c **** 
  46:Core/Src/mpu6050.c ****     return STATUS_OK;
 106              		.loc 1 46 5 is_stmt 1 view .LVU16
  47:Core/Src/mpu6050.c **** }
 107              		.loc 1 47 1 is_stmt 0 view .LVU17
 108 0020 0020     		movs	r0, #0
 109 0022 07B0     		add	sp, sp, #28
 110              		.cfi_def_cfa_offset 4
 111              		@ sp needed
 112 0024 5DF804FB 		ldr	pc, [sp], #4
 113              		.cfi_endproc
 114              	.LFE70:
 116              		.section	.text.MPU6050_SetGyroscope,"ax",%progbits
 117              		.align	1
 118              		.global	MPU6050_SetGyroscope
 119              		.syntax unified
 120              		.thumb
 121              		.thumb_func
 123              	MPU6050_SetGyroscope:
 124              	.LVL11:
 125              	.LFB71:
  48:Core/Src/mpu6050.c **** 
  49:Core/Src/mpu6050.c **** status_t MPU6050_SetGyroscope(I2C_HandleTypeDef *hi2c, MPU6050_t *mpu, MPU6050_GyroscopeRange_t gyr
  50:Core/Src/mpu6050.c **** {
 126              		.loc 1 50 1 is_stmt 1 view -0
ARM GAS  C:\Users\ADMIN\AppData\Local\Temp\ccUstEG3.s 			page 4


 127              		.cfi_startproc
 128              		@ args = 0, pretend = 0, frame = 8
 129              		@ frame_needed = 0, uses_anonymous_args = 0
 130              		.loc 1 50 1 is_stmt 0 view .LVU19
 131 0000 2DE9F043 		push	{r4, r5, r6, r7, r8, r9, lr}
 132              		.cfi_def_cfa_offset 28
 133              		.cfi_offset 4, -28
 134              		.cfi_offset 5, -24
 135              		.cfi_offset 6, -20
 136              		.cfi_offset 7, -16
 137              		.cfi_offset 8, -12
 138              		.cfi_offset 9, -8
 139              		.cfi_offset 14, -4
 140 0004 87B0     		sub	sp, sp, #28
 141              		.cfi_def_cfa_offset 56
 142 0006 8046     		mov	r8, r0
 143 0008 0D46     		mov	r5, r1
 144 000a 1446     		mov	r4, r2
  51:Core/Src/mpu6050.c ****     uint8_t tmp_byte;
 145              		.loc 1 51 5 is_stmt 1 view .LVU20
  52:Core/Src/mpu6050.c **** 
  53:Core/Src/mpu6050.c ****     // Read the current register value
  54:Core/Src/mpu6050.c ****     HAL_I2C_Mem_Read(hi2c, mpu->address, (uint8_t)MPU6050_REG_GYRO_CONFIG, 1, &tmp_byte, 1, MPU6050
 146              		.loc 1 54 5 view .LVU21
 147 000c 4FF47A79 		mov	r9, #1000
 148 0010 CDF80890 		str	r9, [sp, #8]
 149 0014 0126     		movs	r6, #1
 150 0016 0196     		str	r6, [sp, #4]
 151 0018 0DF11707 		add	r7, sp, #23
 152 001c 0097     		str	r7, [sp]
 153 001e 3346     		mov	r3, r6
 154 0020 1B22     		movs	r2, #27
 155              	.LVL12:
 156              		.loc 1 54 5 is_stmt 0 view .LVU22
 157 0022 0978     		ldrb	r1, [r1]	@ zero_extendqisi2
 158              	.LVL13:
 159              		.loc 1 54 5 view .LVU23
 160 0024 FFF7FEFF 		bl	HAL_I2C_Mem_Read
 161              	.LVL14:
  55:Core/Src/mpu6050.c **** 
  56:Core/Src/mpu6050.c ****     // Bit-masking 
  57:Core/Src/mpu6050.c ****     tmp_byte &= !(0x03 << 3);
 162              		.loc 1 57 5 is_stmt 1 view .LVU24
 163              		.loc 1 57 14 is_stmt 0 view .LVU25
 164 0028 0023     		movs	r3, #0
 165 002a 8DF81730 		strb	r3, [sp, #23]
  58:Core/Src/mpu6050.c ****     tmp_byte |=  (uint8_t)gyro_range << 3;
 166              		.loc 1 58 5 is_stmt 1 view .LVU26
 167              		.loc 1 58 38 is_stmt 0 view .LVU27
 168 002e E300     		lsls	r3, r4, #3
 169              		.loc 1 58 14 view .LVU28
 170 0030 8DF81730 		strb	r3, [sp, #23]
  59:Core/Src/mpu6050.c **** 
  60:Core/Src/mpu6050.c ****     // Write the FS_SEL setting to the register
  61:Core/Src/mpu6050.c ****     HAL_I2C_Mem_Write(hi2c, mpu->address, (uint8_t)MPU6050_REG_GYRO_CONFIG, 1, &tmp_byte, 1, MPU605
 171              		.loc 1 61 5 is_stmt 1 view .LVU29
 172 0034 CDF80890 		str	r9, [sp, #8]
ARM GAS  C:\Users\ADMIN\AppData\Local\Temp\ccUstEG3.s 			page 5


 173 0038 0196     		str	r6, [sp, #4]
 174 003a 0097     		str	r7, [sp]
 175 003c 3346     		mov	r3, r6
 176 003e 1B22     		movs	r2, #27
 177 0040 2978     		ldrb	r1, [r5]	@ zero_extendqisi2
 178 0042 4046     		mov	r0, r8
 179 0044 FFF7FEFF 		bl	HAL_I2C_Mem_Write
 180              	.LVL15:
  62:Core/Src/mpu6050.c **** 
  63:Core/Src/mpu6050.c ****     // Set the scaling factor for true data
  64:Core/Src/mpu6050.c ****     switch (gyro_range)
 181              		.loc 1 64 5 view .LVU30
 182 0048 032C     		cmp	r4, #3
 183 004a 05D8     		bhi	.L6
 184 004c DFE804F0 		tbb	[pc, r4]
 185              	.L8:
 186 0050 02       		.byte	(.L11-.L8)/2
 187 0051 08       		.byte	(.L10-.L8)/2
 188 0052 0B       		.byte	(.L9-.L8)/2
 189 0053 0E       		.byte	(.L7-.L8)/2
 190              		.p2align 1
 191              	.L11:
  65:Core/Src/mpu6050.c ****     {
  66:Core/Src/mpu6050.c ****     case Gyro_Range_250s:
  67:Core/Src/mpu6050.c ****         mpu->gyro_scaling_factor = 1.0 / 131.0;
 192              		.loc 1 67 9 view .LVU31
 193              		.loc 1 67 34 is_stmt 0 view .LVU32
 194 0054 074B     		ldr	r3, .L13
 195 0056 6B60     		str	r3, [r5, #4]	@ float
  68:Core/Src/mpu6050.c ****         break;
 196              		.loc 1 68 9 is_stmt 1 view .LVU33
 197              	.L6:
  69:Core/Src/mpu6050.c ****     case Gyro_Range_500s:
  70:Core/Src/mpu6050.c ****         mpu->gyro_scaling_factor = 1.0 / 65.5;
  71:Core/Src/mpu6050.c ****         break;
  72:Core/Src/mpu6050.c ****     case Gyro_Range_1000s:
  73:Core/Src/mpu6050.c ****         mpu->gyro_scaling_factor = 1.0 / 32.8;
  74:Core/Src/mpu6050.c ****         break;
  75:Core/Src/mpu6050.c ****     case Gyro_Range_2000s:
  76:Core/Src/mpu6050.c ****         mpu->gyro_scaling_factor = 1.0 / 16.4;
  77:Core/Src/mpu6050.c ****         break;
  78:Core/Src/mpu6050.c ****     default:
  79:Core/Src/mpu6050.c ****         break;
  80:Core/Src/mpu6050.c ****     }
  81:Core/Src/mpu6050.c **** 
  82:Core/Src/mpu6050.c ****     return STATUS_OK;
 198              		.loc 1 82 5 view .LVU34
  83:Core/Src/mpu6050.c **** }
 199              		.loc 1 83 1 is_stmt 0 view .LVU35
 200 0058 0020     		movs	r0, #0
 201 005a 07B0     		add	sp, sp, #28
 202              		.cfi_remember_state
 203              		.cfi_def_cfa_offset 28
 204              		@ sp needed
 205 005c BDE8F083 		pop	{r4, r5, r6, r7, r8, r9, pc}
 206              	.LVL16:
 207              	.L10:
ARM GAS  C:\Users\ADMIN\AppData\Local\Temp\ccUstEG3.s 			page 6


 208              		.cfi_restore_state
  70:Core/Src/mpu6050.c ****         break;
 209              		.loc 1 70 9 is_stmt 1 view .LVU36
  70:Core/Src/mpu6050.c ****         break;
 210              		.loc 1 70 34 is_stmt 0 view .LVU37
 211 0060 054B     		ldr	r3, .L13+4
 212 0062 6B60     		str	r3, [r5, #4]	@ float
  71:Core/Src/mpu6050.c ****     case Gyro_Range_1000s:
 213              		.loc 1 71 9 is_stmt 1 view .LVU38
 214 0064 F8E7     		b	.L6
 215              	.L9:
  73:Core/Src/mpu6050.c ****         break;
 216              		.loc 1 73 9 view .LVU39
  73:Core/Src/mpu6050.c ****         break;
 217              		.loc 1 73 34 is_stmt 0 view .LVU40
 218 0066 054B     		ldr	r3, .L13+8
 219 0068 6B60     		str	r3, [r5, #4]	@ float
  74:Core/Src/mpu6050.c ****     case Gyro_Range_2000s:
 220              		.loc 1 74 9 is_stmt 1 view .LVU41
 221 006a F5E7     		b	.L6
 222              	.L7:
  76:Core/Src/mpu6050.c ****         break;
 223              		.loc 1 76 9 view .LVU42
  76:Core/Src/mpu6050.c ****         break;
 224              		.loc 1 76 34 is_stmt 0 view .LVU43
 225 006c 044B     		ldr	r3, .L13+12
 226 006e 6B60     		str	r3, [r5, #4]	@ float
  77:Core/Src/mpu6050.c ****     default:
 227              		.loc 1 77 9 is_stmt 1 view .LVU44
 228 0070 F2E7     		b	.L6
 229              	.L14:
 230 0072 00BF     		.align	2
 231              	.L13:
 232 0074 2D23FA3B 		.word	1006248749
 233 0078 2D237A3C 		.word	1014637357
 234 007c 90C1F93C 		.word	1023000976
 235 0080 90C1793D 		.word	1031389584
 236              		.cfi_endproc
 237              	.LFE71:
 239              		.section	.text.MPU6050_SetAccelerometer,"ax",%progbits
 240              		.align	1
 241              		.global	MPU6050_SetAccelerometer
 242              		.syntax unified
 243              		.thumb
 244              		.thumb_func
 246              	MPU6050_SetAccelerometer:
 247              	.LVL17:
 248              	.LFB72:
  84:Core/Src/mpu6050.c **** 
  85:Core/Src/mpu6050.c **** status_t MPU6050_SetAccelerometer(I2C_HandleTypeDef *hi2c, MPU6050_t *mpu, MPU6050_AccelerometerRan
  86:Core/Src/mpu6050.c **** {
 249              		.loc 1 86 1 view -0
 250              		.cfi_startproc
 251              		@ args = 0, pretend = 0, frame = 8
 252              		@ frame_needed = 0, uses_anonymous_args = 0
 253              		.loc 1 86 1 is_stmt 0 view .LVU46
 254 0000 2DE9F043 		push	{r4, r5, r6, r7, r8, r9, lr}
ARM GAS  C:\Users\ADMIN\AppData\Local\Temp\ccUstEG3.s 			page 7


 255              		.cfi_def_cfa_offset 28
 256              		.cfi_offset 4, -28
 257              		.cfi_offset 5, -24
 258              		.cfi_offset 6, -20
 259              		.cfi_offset 7, -16
 260              		.cfi_offset 8, -12
 261              		.cfi_offset 9, -8
 262              		.cfi_offset 14, -4
 263 0004 87B0     		sub	sp, sp, #28
 264              		.cfi_def_cfa_offset 56
 265 0006 8046     		mov	r8, r0
 266 0008 0D46     		mov	r5, r1
 267 000a 1446     		mov	r4, r2
  87:Core/Src/mpu6050.c ****     uint8_t tmp_byte;
 268              		.loc 1 87 5 is_stmt 1 view .LVU47
  88:Core/Src/mpu6050.c **** 
  89:Core/Src/mpu6050.c ****     // Read the current register value
  90:Core/Src/mpu6050.c ****     HAL_I2C_Mem_Read(hi2c, mpu->address, (uint8_t)MPU6050_REG_ACCEL_CONFIG, 1, &tmp_byte, 1, MPU605
 269              		.loc 1 90 5 view .LVU48
 270 000c 4FF47A79 		mov	r9, #1000
 271 0010 CDF80890 		str	r9, [sp, #8]
 272 0014 0126     		movs	r6, #1
 273 0016 0196     		str	r6, [sp, #4]
 274 0018 0DF11707 		add	r7, sp, #23
 275 001c 0097     		str	r7, [sp]
 276 001e 3346     		mov	r3, r6
 277 0020 1C22     		movs	r2, #28
 278              	.LVL18:
 279              		.loc 1 90 5 is_stmt 0 view .LVU49
 280 0022 0978     		ldrb	r1, [r1]	@ zero_extendqisi2
 281              	.LVL19:
 282              		.loc 1 90 5 view .LVU50
 283 0024 FFF7FEFF 		bl	HAL_I2C_Mem_Read
 284              	.LVL20:
  91:Core/Src/mpu6050.c **** 
  92:Core/Src/mpu6050.c ****     // Bit-masking 
  93:Core/Src/mpu6050.c ****     tmp_byte &= !(0x03 << 3);
 285              		.loc 1 93 5 is_stmt 1 view .LVU51
 286              		.loc 1 93 14 is_stmt 0 view .LVU52
 287 0028 0023     		movs	r3, #0
 288 002a 8DF81730 		strb	r3, [sp, #23]
  94:Core/Src/mpu6050.c ****     tmp_byte |=  (uint8_t)accel_range << 3;
 289              		.loc 1 94 5 is_stmt 1 view .LVU53
 290              		.loc 1 94 39 is_stmt 0 view .LVU54
 291 002e E300     		lsls	r3, r4, #3
 292              		.loc 1 94 14 view .LVU55
 293 0030 8DF81730 		strb	r3, [sp, #23]
  95:Core/Src/mpu6050.c **** 
  96:Core/Src/mpu6050.c ****     // Write the FS_SEL setting to the register
  97:Core/Src/mpu6050.c ****     HAL_I2C_Mem_Write(hi2c, mpu->address, (uint8_t)MPU6050_REG_ACCEL_CONFIG, 1, &tmp_byte, 1, MPU60
 294              		.loc 1 97 5 is_stmt 1 view .LVU56
 295 0034 CDF80890 		str	r9, [sp, #8]
 296 0038 0196     		str	r6, [sp, #4]
 297 003a 0097     		str	r7, [sp]
 298 003c 3346     		mov	r3, r6
 299 003e 1C22     		movs	r2, #28
 300 0040 2978     		ldrb	r1, [r5]	@ zero_extendqisi2
ARM GAS  C:\Users\ADMIN\AppData\Local\Temp\ccUstEG3.s 			page 8


 301 0042 4046     		mov	r0, r8
 302 0044 FFF7FEFF 		bl	HAL_I2C_Mem_Write
 303              	.LVL21:
  98:Core/Src/mpu6050.c **** 
  99:Core/Src/mpu6050.c ****     // Set the scaling factor for true data
 100:Core/Src/mpu6050.c ****     switch (accel_range)
 304              		.loc 1 100 5 view .LVU57
 305 0048 032C     		cmp	r4, #3
 306 004a 05D8     		bhi	.L16
 307 004c DFE804F0 		tbb	[pc, r4]
 308              	.L18:
 309 0050 02       		.byte	(.L21-.L18)/2
 310 0051 08       		.byte	(.L20-.L18)/2
 311 0052 0B       		.byte	(.L19-.L18)/2
 312 0053 0E       		.byte	(.L17-.L18)/2
 313              		.p2align 1
 314              	.L21:
 101:Core/Src/mpu6050.c ****     {
 102:Core/Src/mpu6050.c ****     case Accel_Range_2g:
 103:Core/Src/mpu6050.c ****         mpu->accel_scaling_factor = G / 16384.0;
 315              		.loc 1 103 9 view .LVU58
 316              		.loc 1 103 35 is_stmt 0 view .LVU59
 317 0054 074B     		ldr	r3, .L23
 318 0056 AB60     		str	r3, [r5, #8]	@ float
 104:Core/Src/mpu6050.c ****         break;
 319              		.loc 1 104 9 is_stmt 1 view .LVU60
 320              	.L16:
 105:Core/Src/mpu6050.c ****     case Accel_Range_4g:
 106:Core/Src/mpu6050.c ****         mpu->accel_scaling_factor = G / 8192.0;
 107:Core/Src/mpu6050.c ****         break;
 108:Core/Src/mpu6050.c ****     case Accel_Range_8g:
 109:Core/Src/mpu6050.c ****         mpu->accel_scaling_factor = G / 4096.0;
 110:Core/Src/mpu6050.c ****         break;
 111:Core/Src/mpu6050.c ****     case Accel_Range_16g:
 112:Core/Src/mpu6050.c ****         mpu->accel_scaling_factor = G / 2048.0;
 113:Core/Src/mpu6050.c ****         break;
 114:Core/Src/mpu6050.c ****     default:
 115:Core/Src/mpu6050.c ****         break;
 116:Core/Src/mpu6050.c ****     }
 117:Core/Src/mpu6050.c **** 
 118:Core/Src/mpu6050.c ****     return STATUS_OK;
 321              		.loc 1 118 5 view .LVU61
 119:Core/Src/mpu6050.c **** }
 322              		.loc 1 119 1 is_stmt 0 view .LVU62
 323 0058 0020     		movs	r0, #0
 324 005a 07B0     		add	sp, sp, #28
 325              		.cfi_remember_state
 326              		.cfi_def_cfa_offset 28
 327              		@ sp needed
 328 005c BDE8F083 		pop	{r4, r5, r6, r7, r8, r9, pc}
 329              	.LVL22:
 330              	.L20:
 331              		.cfi_restore_state
 106:Core/Src/mpu6050.c ****         break;
 332              		.loc 1 106 9 is_stmt 1 view .LVU63
 106:Core/Src/mpu6050.c ****         break;
 333              		.loc 1 106 35 is_stmt 0 view .LVU64
ARM GAS  C:\Users\ADMIN\AppData\Local\Temp\ccUstEG3.s 			page 9


 334 0060 054B     		ldr	r3, .L23+4
 335 0062 AB60     		str	r3, [r5, #8]	@ float
 107:Core/Src/mpu6050.c ****     case Accel_Range_8g:
 336              		.loc 1 107 9 is_stmt 1 view .LVU65
 337 0064 F8E7     		b	.L16
 338              	.L19:
 109:Core/Src/mpu6050.c ****         break;
 339              		.loc 1 109 9 view .LVU66
 109:Core/Src/mpu6050.c ****         break;
 340              		.loc 1 109 35 is_stmt 0 view .LVU67
 341 0066 054B     		ldr	r3, .L23+8
 342 0068 AB60     		str	r3, [r5, #8]	@ float
 110:Core/Src/mpu6050.c ****     case Accel_Range_16g:
 343              		.loc 1 110 9 is_stmt 1 view .LVU68
 344 006a F5E7     		b	.L16
 345              	.L17:
 112:Core/Src/mpu6050.c ****         break;
 346              		.loc 1 112 9 view .LVU69
 112:Core/Src/mpu6050.c ****         break;
 347              		.loc 1 112 35 is_stmt 0 view .LVU70
 348 006c 044B     		ldr	r3, .L23+12
 349 006e AB60     		str	r3, [r5, #8]	@ float
 113:Core/Src/mpu6050.c ****     default:
 350              		.loc 1 113 9 is_stmt 1 view .LVU71
 351 0070 F2E7     		b	.L16
 352              	.L24:
 353 0072 00BF     		.align	2
 354              	.L23:
 355 0074 C3F51C3A 		.word	974976451
 356 0078 C3F59C3A 		.word	983365059
 357 007c C3F51C3B 		.word	991753667
 358 0080 C3F59C3B 		.word	1000142275
 359              		.cfi_endproc
 360              	.LFE72:
 362              		.section	.text.MPU6050_Init,"ax",%progbits
 363              		.align	1
 364              		.global	MPU6050_Init
 365              		.syntax unified
 366              		.thumb
 367              		.thumb_func
 369              	MPU6050_Init:
 370              	.LVL23:
 371              	.LFB69:
  10:Core/Src/mpu6050.c ****     uint8_t tmp_byte;
 372              		.loc 1 10 1 view -0
 373              		.cfi_startproc
 374              		@ args = 0, pretend = 0, frame = 16
 375              		@ frame_needed = 0, uses_anonymous_args = 0
  10:Core/Src/mpu6050.c ****     uint8_t tmp_byte;
 376              		.loc 1 10 1 is_stmt 0 view .LVU73
 377 0000 70B5     		push	{r4, r5, r6, lr}
 378              		.cfi_def_cfa_offset 16
 379              		.cfi_offset 4, -16
 380              		.cfi_offset 5, -12
 381              		.cfi_offset 6, -8
 382              		.cfi_offset 14, -4
 383 0002 88B0     		sub	sp, sp, #32
ARM GAS  C:\Users\ADMIN\AppData\Local\Temp\ccUstEG3.s 			page 10


 384              		.cfi_def_cfa_offset 48
 385 0004 0546     		mov	r5, r0
 386 0006 0E46     		mov	r6, r1
 387 0008 0592     		str	r2, [sp, #20]
 388 000a 1C46     		mov	r4, r3
  11:Core/Src/mpu6050.c ****     uint8_t check_buffer;
 389              		.loc 1 11 5 is_stmt 1 view .LVU74
  12:Core/Src/mpu6050.c **** 
 390              		.loc 1 12 5 view .LVU75
  14:Core/Src/mpu6050.c **** 
 391              		.loc 1 14 5 view .LVU76
 392 000c 0DF11E03 		add	r3, sp, #30
 393              	.LVL24:
  14:Core/Src/mpu6050.c **** 
 394              		.loc 1 14 5 is_stmt 0 view .LVU77
 395 0010 2246     		mov	r2, r4
 396 0012 FFF7FEFF 		bl	MPU6050_ReadWhoAmI
 397              	.LVL25:
  17:Core/Src/mpu6050.c ****     {
 398              		.loc 1 17 5 is_stmt 1 view .LVU78
  17:Core/Src/mpu6050.c ****     {
 399              		.loc 1 17 22 is_stmt 0 view .LVU79
 400 0016 9DF81E20 		ldrb	r2, [sp, #30]	@ zero_extendqisi2
  17:Core/Src/mpu6050.c ****     {
 401              		.loc 1 17 31 view .LVU80
 402 001a 6823     		movs	r3, #104
 403 001c 03FA04F4 		lsl	r4, r3, r4
  17:Core/Src/mpu6050.c ****     {
 404              		.loc 1 17 8 view .LVU81
 405 0020 A242     		cmp	r2, r4
 406 0022 03D0     		beq	.L29
  36:Core/Src/mpu6050.c **** }
 407              		.loc 1 36 12 view .LVU82
 408 0024 4FF0FF30 		mov	r0, #-1
 409              	.L25:
  37:Core/Src/mpu6050.c **** 
 410              		.loc 1 37 1 view .LVU83
 411 0028 08B0     		add	sp, sp, #32
 412              		.cfi_remember_state
 413              		.cfi_def_cfa_offset 16
 414              		@ sp needed
 415 002a 70BD     		pop	{r4, r5, r6, pc}
 416              	.LVL26:
 417              	.L29:
 418              		.cfi_restore_state
  22:Core/Src/mpu6050.c ****         HAL_I2C_Mem_Write(hi2c, mpu->address, (uint8_t)MPU6050_REG_PWR_MGMT_1, 1, &tmp_byte, 1, MPU
 419              		.loc 1 22 9 is_stmt 1 view .LVU84
  22:Core/Src/mpu6050.c ****         HAL_I2C_Mem_Write(hi2c, mpu->address, (uint8_t)MPU6050_REG_PWR_MGMT_1, 1, &tmp_byte, 1, MPU
 420              		.loc 1 22 18 is_stmt 0 view .LVU85
 421 002c 0024     		movs	r4, #0
 422 002e 8DF81F40 		strb	r4, [sp, #31]
  23:Core/Src/mpu6050.c **** 
 423              		.loc 1 23 9 is_stmt 1 view .LVU86
 424 0032 4FF47A73 		mov	r3, #1000
 425 0036 0293     		str	r3, [sp, #8]
 426 0038 0123     		movs	r3, #1
 427 003a 0193     		str	r3, [sp, #4]
ARM GAS  C:\Users\ADMIN\AppData\Local\Temp\ccUstEG3.s 			page 11


 428 003c 0DF11F02 		add	r2, sp, #31
 429 0040 0092     		str	r2, [sp]
 430 0042 6B22     		movs	r2, #107
 431 0044 3178     		ldrb	r1, [r6]	@ zero_extendqisi2
 432 0046 2846     		mov	r0, r5
 433 0048 FFF7FEFF 		bl	HAL_I2C_Mem_Write
 434              	.LVL27:
  26:Core/Src/mpu6050.c ****         /* Set the gyroscope range */
 435              		.loc 1 26 9 view .LVU87
 436 004c 9DF81420 		ldrb	r2, [sp, #20]	@ zero_extendqisi2
 437 0050 3146     		mov	r1, r6
 438 0052 2846     		mov	r0, r5
 439 0054 FFF7FEFF 		bl	MPU6050_SetSampleRate
 440              	.LVL28:
  28:Core/Src/mpu6050.c ****         mpu->gyro_scaling_factor = 0;
 441              		.loc 1 28 9 view .LVU88
 442 0058 9DF81520 		ldrb	r2, [sp, #21]	@ zero_extendqisi2
 443 005c 3146     		mov	r1, r6
 444 005e 2846     		mov	r0, r5
 445 0060 FFF7FEFF 		bl	MPU6050_SetGyroscope
 446              	.LVL29:
  29:Core/Src/mpu6050.c ****         /* Set the accelerometer range */
 447              		.loc 1 29 9 view .LVU89
  29:Core/Src/mpu6050.c ****         /* Set the accelerometer range */
 448              		.loc 1 29 34 is_stmt 0 view .LVU90
 449 0064 0023     		movs	r3, #0
 450 0066 7360     		str	r3, [r6, #4]	@ float
  31:Core/Src/mpu6050.c **** 
 451              		.loc 1 31 9 is_stmt 1 view .LVU91
 452 0068 9DF81620 		ldrb	r2, [sp, #22]	@ zero_extendqisi2
 453 006c 3146     		mov	r1, r6
 454 006e 2846     		mov	r0, r5
 455 0070 FFF7FEFF 		bl	MPU6050_SetAccelerometer
 456              	.LVL30:
  33:Core/Src/mpu6050.c ****     }
 457              		.loc 1 33 9 view .LVU92
  33:Core/Src/mpu6050.c ****     }
 458              		.loc 1 33 16 is_stmt 0 view .LVU93
 459 0074 2046     		mov	r0, r4
 460 0076 D7E7     		b	.L25
 461              		.cfi_endproc
 462              	.LFE69:
 464              		.global	__aeabi_i2f
 465              		.global	__aeabi_fmul
 466              		.global	__aeabi_f2iz
 467              		.section	.text.MPU6050_ReadGyroscope,"ax",%progbits
 468              		.align	1
 469              		.global	MPU6050_ReadGyroscope
 470              		.syntax unified
 471              		.thumb
 472              		.thumb_func
 474              	MPU6050_ReadGyroscope:
 475              	.LVL31:
 476              	.LFB73:
 120:Core/Src/mpu6050.c **** 
 121:Core/Src/mpu6050.c **** status_t MPU6050_ReadGyroscope(I2C_HandleTypeDef *hi2c, MPU6050_t *mpu)
 122:Core/Src/mpu6050.c **** {
ARM GAS  C:\Users\ADMIN\AppData\Local\Temp\ccUstEG3.s 			page 12


 477              		.loc 1 122 1 is_stmt 1 view -0
 478              		.cfi_startproc
 479              		@ args = 0, pretend = 0, frame = 8
 480              		@ frame_needed = 0, uses_anonymous_args = 0
 481              		.loc 1 122 1 is_stmt 0 view .LVU95
 482 0000 F0B5     		push	{r4, r5, r6, r7, lr}
 483              		.cfi_def_cfa_offset 20
 484              		.cfi_offset 4, -20
 485              		.cfi_offset 5, -16
 486              		.cfi_offset 6, -12
 487              		.cfi_offset 7, -8
 488              		.cfi_offset 14, -4
 489 0002 87B0     		sub	sp, sp, #28
 490              		.cfi_def_cfa_offset 48
 491 0004 0C46     		mov	r4, r1
 123:Core/Src/mpu6050.c ****     uint8_t data[6];
 492              		.loc 1 123 5 is_stmt 1 view .LVU96
 124:Core/Src/mpu6050.c **** 
 125:Core/Src/mpu6050.c ****     // Read 6 bytes of RAW data starting from ACCEL_XOUT_H register.
 126:Core/Src/mpu6050.c ****     HAL_I2C_Mem_Read(hi2c, mpu->address, MPU6050_REG_GYRO_XOUT_H, 1, data, 6, MPU6050_DEFAULT_TIMEO
 493              		.loc 1 126 5 view .LVU97
 494 0006 4FF47A73 		mov	r3, #1000
 495 000a 0293     		str	r3, [sp, #8]
 496 000c 0623     		movs	r3, #6
 497 000e 0193     		str	r3, [sp, #4]
 498 0010 04AB     		add	r3, sp, #16
 499 0012 0093     		str	r3, [sp]
 500 0014 0123     		movs	r3, #1
 501 0016 4322     		movs	r2, #67
 502 0018 0978     		ldrb	r1, [r1]	@ zero_extendqisi2
 503              	.LVL32:
 504              		.loc 1 126 5 is_stmt 0 view .LVU98
 505 001a FFF7FEFF 		bl	HAL_I2C_Mem_Read
 506              	.LVL33:
 127:Core/Src/mpu6050.c **** 
 128:Core/Src/mpu6050.c ****     mpu->gyro_raw.x_axis = (int16_t)(data[0] << 8 | data[1]);
 507              		.loc 1 128 5 is_stmt 1 view .LVU99
 508              		.loc 1 128 42 is_stmt 0 view .LVU100
 509 001e 9DF81030 		ldrb	r3, [sp, #16]	@ zero_extendqisi2
 510              		.loc 1 128 57 view .LVU101
 511 0022 9DF81100 		ldrb	r0, [sp, #17]	@ zero_extendqisi2
 512              		.loc 1 128 28 view .LVU102
 513 0026 40EA0320 		orr	r0, r0, r3, lsl #8
 514 002a 00B2     		sxth	r0, r0
 515              		.loc 1 128 26 view .LVU103
 516 002c A081     		strh	r0, [r4, #12]	@ movhi
 129:Core/Src/mpu6050.c ****     mpu->gyro_raw.y_axis = (int16_t)(data[2] << 8 | data[3]);
 517              		.loc 1 129 5 is_stmt 1 view .LVU104
 518              		.loc 1 129 42 is_stmt 0 view .LVU105
 519 002e 9DF81230 		ldrb	r3, [sp, #18]	@ zero_extendqisi2
 520              		.loc 1 129 57 view .LVU106
 521 0032 9DF81360 		ldrb	r6, [sp, #19]	@ zero_extendqisi2
 522              		.loc 1 129 28 view .LVU107
 523 0036 46EA0326 		orr	r6, r6, r3, lsl #8
 524 003a 36B2     		sxth	r6, r6
 525              		.loc 1 129 26 view .LVU108
 526 003c E681     		strh	r6, [r4, #14]	@ movhi
ARM GAS  C:\Users\ADMIN\AppData\Local\Temp\ccUstEG3.s 			page 13


 130:Core/Src/mpu6050.c ****     mpu->gyro_raw.z_axis = (int16_t)(data[4] << 8 | data[5]);
 527              		.loc 1 130 5 is_stmt 1 view .LVU109
 528              		.loc 1 130 42 is_stmt 0 view .LVU110
 529 003e 9DF81430 		ldrb	r3, [sp, #20]	@ zero_extendqisi2
 530              		.loc 1 130 57 view .LVU111
 531 0042 9DF81550 		ldrb	r5, [sp, #21]	@ zero_extendqisi2
 532              		.loc 1 130 28 view .LVU112
 533 0046 45EA0325 		orr	r5, r5, r3, lsl #8
 534 004a 2DB2     		sxth	r5, r5
 535              		.loc 1 130 26 view .LVU113
 536 004c 2582     		strh	r5, [r4, #16]	@ movhi
 131:Core/Src/mpu6050.c **** 
 132:Core/Src/mpu6050.c ****     // Convert the RAW data into angular acceleration in 'deg/s'
 133:Core/Src/mpu6050.c ****     mpu->gyro_scaled.x_axis = mpu->gyro_raw.x_axis * mpu->gyro_scaling_factor;
 537              		.loc 1 133 5 is_stmt 1 view .LVU114
 538              		.loc 1 133 57 is_stmt 0 view .LVU115
 539 004e 6768     		ldr	r7, [r4, #4]	@ float
 540              		.loc 1 133 52 view .LVU116
 541 0050 FFF7FEFF 		bl	__aeabi_i2f
 542              	.LVL34:
 543 0054 3946     		mov	r1, r7
 544 0056 FFF7FEFF 		bl	__aeabi_fmul
 545              	.LVL35:
 546              		.loc 1 133 29 view .LVU117
 547 005a FFF7FEFF 		bl	__aeabi_f2iz
 548              	.LVL36:
 549 005e A083     		strh	r0, [r4, #28]	@ movhi
 134:Core/Src/mpu6050.c ****     mpu->gyro_scaled.y_axis = mpu->gyro_raw.y_axis * mpu->gyro_scaling_factor;
 550              		.loc 1 134 5 is_stmt 1 view .LVU118
 551              		.loc 1 134 52 is_stmt 0 view .LVU119
 552 0060 3046     		mov	r0, r6
 553 0062 FFF7FEFF 		bl	__aeabi_i2f
 554              	.LVL37:
 555 0066 3946     		mov	r1, r7
 556 0068 FFF7FEFF 		bl	__aeabi_fmul
 557              	.LVL38:
 558              		.loc 1 134 29 view .LVU120
 559 006c FFF7FEFF 		bl	__aeabi_f2iz
 560              	.LVL39:
 561 0070 E083     		strh	r0, [r4, #30]	@ movhi
 135:Core/Src/mpu6050.c ****     mpu->gyro_scaled.z_axis = mpu->gyro_raw.z_axis * mpu->gyro_scaling_factor;
 562              		.loc 1 135 5 is_stmt 1 view .LVU121
 563              		.loc 1 135 52 is_stmt 0 view .LVU122
 564 0072 2846     		mov	r0, r5
 565 0074 FFF7FEFF 		bl	__aeabi_i2f
 566              	.LVL40:
 567 0078 3946     		mov	r1, r7
 568 007a FFF7FEFF 		bl	__aeabi_fmul
 569              	.LVL41:
 570              		.loc 1 135 29 view .LVU123
 571 007e FFF7FEFF 		bl	__aeabi_f2iz
 572              	.LVL42:
 573 0082 2084     		strh	r0, [r4, #32]	@ movhi
 136:Core/Src/mpu6050.c **** 
 137:Core/Src/mpu6050.c ****     return STATUS_OK;
 574              		.loc 1 137 5 is_stmt 1 view .LVU124
 138:Core/Src/mpu6050.c **** }
ARM GAS  C:\Users\ADMIN\AppData\Local\Temp\ccUstEG3.s 			page 14


 575              		.loc 1 138 1 is_stmt 0 view .LVU125
 576 0084 0020     		movs	r0, #0
 577 0086 07B0     		add	sp, sp, #28
 578              		.cfi_def_cfa_offset 20
 579              		@ sp needed
 580 0088 F0BD     		pop	{r4, r5, r6, r7, pc}
 581              		.loc 1 138 1 view .LVU126
 582              		.cfi_endproc
 583              	.LFE73:
 585              		.section	.text.MPU6050_ReadAccelerometer,"ax",%progbits
 586              		.align	1
 587              		.global	MPU6050_ReadAccelerometer
 588              		.syntax unified
 589              		.thumb
 590              		.thumb_func
 592              	MPU6050_ReadAccelerometer:
 593              	.LVL43:
 594              	.LFB74:
 139:Core/Src/mpu6050.c **** 
 140:Core/Src/mpu6050.c **** status_t MPU6050_ReadAccelerometer(I2C_HandleTypeDef *hi2c, MPU6050_t *mpu)
 141:Core/Src/mpu6050.c **** {
 595              		.loc 1 141 1 is_stmt 1 view -0
 596              		.cfi_startproc
 597              		@ args = 0, pretend = 0, frame = 8
 598              		@ frame_needed = 0, uses_anonymous_args = 0
 599              		.loc 1 141 1 is_stmt 0 view .LVU128
 600 0000 F0B5     		push	{r4, r5, r6, r7, lr}
 601              		.cfi_def_cfa_offset 20
 602              		.cfi_offset 4, -20
 603              		.cfi_offset 5, -16
 604              		.cfi_offset 6, -12
 605              		.cfi_offset 7, -8
 606              		.cfi_offset 14, -4
 607 0002 87B0     		sub	sp, sp, #28
 608              		.cfi_def_cfa_offset 48
 609 0004 0C46     		mov	r4, r1
 142:Core/Src/mpu6050.c ****     uint8_t data[6];
 610              		.loc 1 142 5 is_stmt 1 view .LVU129
 143:Core/Src/mpu6050.c **** 
 144:Core/Src/mpu6050.c ****     // Read 6 bytes of RAW data starting from ACCEL_XOUT_H register.
 145:Core/Src/mpu6050.c ****     HAL_I2C_Mem_Read(hi2c, mpu->address, MPU6050_REG_ACCEL_XOUT_H, 1, data, 6, MPU6050_DEFAULT_TIME
 611              		.loc 1 145 5 view .LVU130
 612 0006 4FF47A73 		mov	r3, #1000
 613 000a 0293     		str	r3, [sp, #8]
 614 000c 0623     		movs	r3, #6
 615 000e 0193     		str	r3, [sp, #4]
 616 0010 04AB     		add	r3, sp, #16
 617 0012 0093     		str	r3, [sp]
 618 0014 0123     		movs	r3, #1
 619 0016 3B22     		movs	r2, #59
 620 0018 0978     		ldrb	r1, [r1]	@ zero_extendqisi2
 621              	.LVL44:
 622              		.loc 1 145 5 is_stmt 0 view .LVU131
 623 001a FFF7FEFF 		bl	HAL_I2C_Mem_Read
 624              	.LVL45:
 146:Core/Src/mpu6050.c **** 
 147:Core/Src/mpu6050.c ****     mpu->accel_raw.x_axis = (int16_t)(data[0] << 8 | data[1]);
ARM GAS  C:\Users\ADMIN\AppData\Local\Temp\ccUstEG3.s 			page 15


 625              		.loc 1 147 5 is_stmt 1 view .LVU132
 626              		.loc 1 147 43 is_stmt 0 view .LVU133
 627 001e 9DF81030 		ldrb	r3, [sp, #16]	@ zero_extendqisi2
 628              		.loc 1 147 58 view .LVU134
 629 0022 9DF81100 		ldrb	r0, [sp, #17]	@ zero_extendqisi2
 630              		.loc 1 147 29 view .LVU135
 631 0026 40EA0320 		orr	r0, r0, r3, lsl #8
 632 002a 00B2     		sxth	r0, r0
 633              		.loc 1 147 27 view .LVU136
 634 002c 6082     		strh	r0, [r4, #18]	@ movhi
 148:Core/Src/mpu6050.c ****     mpu->accel_raw.y_axis = (int16_t)(data[2] << 8 | data[3]);
 635              		.loc 1 148 5 is_stmt 1 view .LVU137
 636              		.loc 1 148 43 is_stmt 0 view .LVU138
 637 002e 9DF81230 		ldrb	r3, [sp, #18]	@ zero_extendqisi2
 638              		.loc 1 148 58 view .LVU139
 639 0032 9DF81360 		ldrb	r6, [sp, #19]	@ zero_extendqisi2
 640              		.loc 1 148 29 view .LVU140
 641 0036 46EA0326 		orr	r6, r6, r3, lsl #8
 642 003a 36B2     		sxth	r6, r6
 643              		.loc 1 148 27 view .LVU141
 644 003c A682     		strh	r6, [r4, #20]	@ movhi
 149:Core/Src/mpu6050.c ****     mpu->accel_raw.z_axis = (int16_t)(data[4] << 8 | data[5]);
 645              		.loc 1 149 5 is_stmt 1 view .LVU142
 646              		.loc 1 149 43 is_stmt 0 view .LVU143
 647 003e 9DF81430 		ldrb	r3, [sp, #20]	@ zero_extendqisi2
 648              		.loc 1 149 58 view .LVU144
 649 0042 9DF81550 		ldrb	r5, [sp, #21]	@ zero_extendqisi2
 650              		.loc 1 149 29 view .LVU145
 651 0046 45EA0325 		orr	r5, r5, r3, lsl #8
 652 004a 2DB2     		sxth	r5, r5
 653              		.loc 1 149 27 view .LVU146
 654 004c E582     		strh	r5, [r4, #22]	@ movhi
 150:Core/Src/mpu6050.c **** 
 151:Core/Src/mpu6050.c ****     // Convert the RAW data into linear acceleration in 'm/s^2'
 152:Core/Src/mpu6050.c ****     mpu->accel_scaled.x_axis = mpu->accel_raw.x_axis * mpu->accel_scaling_factor;
 655              		.loc 1 152 5 is_stmt 1 view .LVU147
 656              		.loc 1 152 59 is_stmt 0 view .LVU148
 657 004e A768     		ldr	r7, [r4, #8]	@ float
 658              		.loc 1 152 54 view .LVU149
 659 0050 FFF7FEFF 		bl	__aeabi_i2f
 660              	.LVL46:
 661 0054 3946     		mov	r1, r7
 662 0056 FFF7FEFF 		bl	__aeabi_fmul
 663              	.LVL47:
 664              		.loc 1 152 30 view .LVU150
 665 005a FFF7FEFF 		bl	__aeabi_f2iz
 666              	.LVL48:
 667 005e 6084     		strh	r0, [r4, #34]	@ movhi
 153:Core/Src/mpu6050.c ****     mpu->accel_scaled.y_axis = mpu->accel_raw.y_axis * mpu->accel_scaling_factor;
 668              		.loc 1 153 5 is_stmt 1 view .LVU151
 669              		.loc 1 153 54 is_stmt 0 view .LVU152
 670 0060 3046     		mov	r0, r6
 671 0062 FFF7FEFF 		bl	__aeabi_i2f
 672              	.LVL49:
 673 0066 3946     		mov	r1, r7
 674 0068 FFF7FEFF 		bl	__aeabi_fmul
 675              	.LVL50:
ARM GAS  C:\Users\ADMIN\AppData\Local\Temp\ccUstEG3.s 			page 16


 676              		.loc 1 153 30 view .LVU153
 677 006c FFF7FEFF 		bl	__aeabi_f2iz
 678              	.LVL51:
 679 0070 A084     		strh	r0, [r4, #36]	@ movhi
 154:Core/Src/mpu6050.c ****     mpu->accel_scaled.z_axis = mpu->accel_raw.z_axis * mpu->accel_scaling_factor;
 680              		.loc 1 154 5 is_stmt 1 view .LVU154
 681              		.loc 1 154 54 is_stmt 0 view .LVU155
 682 0072 2846     		mov	r0, r5
 683 0074 FFF7FEFF 		bl	__aeabi_i2f
 684              	.LVL52:
 685 0078 3946     		mov	r1, r7
 686 007a FFF7FEFF 		bl	__aeabi_fmul
 687              	.LVL53:
 688              		.loc 1 154 30 view .LVU156
 689 007e FFF7FEFF 		bl	__aeabi_f2iz
 690              	.LVL54:
 691 0082 E084     		strh	r0, [r4, #38]	@ movhi
 155:Core/Src/mpu6050.c **** 
 156:Core/Src/mpu6050.c ****     return STATUS_OK;
 692              		.loc 1 156 5 is_stmt 1 view .LVU157
 157:Core/Src/mpu6050.c **** }
 693              		.loc 1 157 1 is_stmt 0 view .LVU158
 694 0084 0020     		movs	r0, #0
 695 0086 07B0     		add	sp, sp, #28
 696              		.cfi_def_cfa_offset 20
 697              		@ sp needed
 698 0088 F0BD     		pop	{r4, r5, r6, r7, pc}
 699              		.loc 1 157 1 view .LVU159
 700              		.cfi_endproc
 701              	.LFE74:
 703              		.text
 704              	.Letext0:
 705              		.file 2 "c:\\program files (x86)\\gnu arm embedded toolchain\\10 2021.10\\arm-none-eabi\\include\\
 706              		.file 3 "c:\\program files (x86)\\gnu arm embedded toolchain\\10 2021.10\\arm-none-eabi\\include\\
 707              		.file 4 "Drivers/CMSIS/Device/ST/STM32F1xx/Include/stm32f103xb.h"
 708              		.file 5 "Drivers/STM32F1xx_HAL_Driver/Inc/stm32f1xx_hal_def.h"
 709              		.file 6 "Drivers/STM32F1xx_HAL_Driver/Inc/stm32f1xx_hal_dma.h"
 710              		.file 7 "Drivers/STM32F1xx_HAL_Driver/Inc/stm32f1xx_hal_i2c.h"
 711              		.file 8 "Core/Inc/operation_status.h"
 712              		.file 9 "Core/Inc/mpu6050.h"
ARM GAS  C:\Users\ADMIN\AppData\Local\Temp\ccUstEG3.s 			page 17

