
control_board_motor_test.elf:     file format elf32-littlearm

Sections:
Idx Name          Size      VMA       LMA       File off  Algn
  0 .isr_vector   000001e4  08000000  08000000  00001000  2**0
                  CONTENTS, ALLOC, LOAD, READONLY, DATA
  1 .text         0000463c  080001e4  080001e4  000011e4  2**2
                  CONTENTS, ALLOC, LOAD, READONLY, CODE
  2 .rodata       00000314  08004820  08004820  00005820  2**2
                  CONTENTS, ALLOC, LOAD, READONLY, DATA
  3 .ARM.extab    00000000  08004b34  08004b34  0000606c  2**0
                  CONTENTS
  4 .ARM          00000008  08004b34  08004b34  00005b34  2**2
                  CONTENTS, ALLOC, LOAD, READONLY, DATA
  5 .preinit_array 00000000  08004b3c  08004b3c  0000606c  2**0
                  CONTENTS, ALLOC, LOAD, DATA
  6 .init_array   00000008  08004b3c  08004b3c  00005b3c  2**2
                  CONTENTS, ALLOC, LOAD, READONLY, DATA
  7 .fini_array   00000004  08004b44  08004b44  00005b44  2**2
                  CONTENTS, ALLOC, LOAD, READONLY, DATA
  8 .data         0000006c  20000000  08004b48  00006000  2**3
                  CONTENTS, ALLOC, LOAD, DATA
  9 .bss          00004490  20000070  08004bb4  00006070  2**3
                  ALLOC
 10 ._user_heap_stack 00000600  20004500  08004bb4  00006500  2**0
                  ALLOC
 11 .ARM.attributes 00000029  00000000  00000000  0000606c  2**0
                  CONTENTS, READONLY
 12 .comment      00000043  00000000  00000000  00006095  2**0
                  CONTENTS, READONLY
 13 .debug_frame  00000720  00000000  00000000  000060d8  2**2
                  CONTENTS, READONLY, DEBUGGING, OCTETS

Disassembly of section .text:

080001e4 <__do_global_dtors_aux>:
 80001e4:	b510      	push	{r4, lr}
 80001e6:	4c05      	ldr	r4, [pc, #20]	@ (80001fc <__do_global_dtors_aux+0x18>)
 80001e8:	7823      	ldrb	r3, [r4, #0]
 80001ea:	b933      	cbnz	r3, 80001fa <__do_global_dtors_aux+0x16>
 80001ec:	4b04      	ldr	r3, [pc, #16]	@ (8000200 <__do_global_dtors_aux+0x1c>)
 80001ee:	b113      	cbz	r3, 80001f6 <__do_global_dtors_aux+0x12>
 80001f0:	4804      	ldr	r0, [pc, #16]	@ (8000204 <__do_global_dtors_aux+0x20>)
 80001f2:	f3af 8000 	nop.w
 80001f6:	2301      	movs	r3, #1
 80001f8:	7023      	strb	r3, [r4, #0]
 80001fa:	bd10      	pop	{r4, pc}
 80001fc:	20000070 	.word	0x20000070
 8000200:	00000000 	.word	0x00000000
 8000204:	08004808 	.word	0x08004808

08000208 <frame_dummy>:
 8000208:	b508      	push	{r3, lr}
 800020a:	4b03      	ldr	r3, [pc, #12]	@ (8000218 <frame_dummy+0x10>)
 800020c:	b11b      	cbz	r3, 8000216 <frame_dummy+0xe>
 800020e:	4903      	ldr	r1, [pc, #12]	@ (800021c <frame_dummy+0x14>)
 8000210:	4803      	ldr	r0, [pc, #12]	@ (8000220 <frame_dummy+0x18>)
 8000212:	f3af 8000 	nop.w
 8000216:	bd08      	pop	{r3, pc}
 8000218:	00000000 	.word	0x00000000
 800021c:	20000074 	.word	0x20000074
 8000220:	08004808 	.word	0x08004808

08000224 <strlen>:
 8000224:	4603      	mov	r3, r0
 8000226:	f813 2b01 	ldrb.w	r2, [r3], #1
 800022a:	2a00      	cmp	r2, #0
 800022c:	d1fb      	bne.n	8000226 <strlen+0x2>
 800022e:	1a18      	subs	r0, r3, r0
 8000230:	3801      	subs	r0, #1
 8000232:	4770      	bx	lr

08000234 <__aeabi_drsub>:
 8000234:	f081 4100 	eor.w	r1, r1, #2147483648	@ 0x80000000
 8000238:	e002      	b.n	8000240 <__adddf3>
 800023a:	bf00      	nop

0800023c <__aeabi_dsub>:
 800023c:	f083 4300 	eor.w	r3, r3, #2147483648	@ 0x80000000

08000240 <__adddf3>:
 8000240:	b530      	push	{r4, r5, lr}
 8000242:	ea4f 0441 	mov.w	r4, r1, lsl #1
 8000246:	ea4f 0543 	mov.w	r5, r3, lsl #1
 800024a:	ea94 0f05 	teq	r4, r5
 800024e:	bf08      	it	eq
 8000250:	ea90 0f02 	teqeq	r0, r2
 8000254:	bf1f      	itttt	ne
 8000256:	ea54 0c00 	orrsne.w	ip, r4, r0
 800025a:	ea55 0c02 	orrsne.w	ip, r5, r2
 800025e:	ea7f 5c64 	mvnsne.w	ip, r4, asr #21
 8000262:	ea7f 5c65 	mvnsne.w	ip, r5, asr #21
 8000266:	f000 80e2 	beq.w	800042e <__adddf3+0x1ee>
 800026a:	ea4f 5454 	mov.w	r4, r4, lsr #21
 800026e:	ebd4 5555 	rsbs	r5, r4, r5, lsr #21
 8000272:	bfb8      	it	lt
 8000274:	426d      	neglt	r5, r5
 8000276:	dd0c      	ble.n	8000292 <__adddf3+0x52>
 8000278:	442c      	add	r4, r5
 800027a:	ea80 0202 	eor.w	r2, r0, r2
 800027e:	ea81 0303 	eor.w	r3, r1, r3
 8000282:	ea82 0000 	eor.w	r0, r2, r0
 8000286:	ea83 0101 	eor.w	r1, r3, r1
 800028a:	ea80 0202 	eor.w	r2, r0, r2
 800028e:	ea81 0303 	eor.w	r3, r1, r3
 8000292:	2d36      	cmp	r5, #54	@ 0x36
 8000294:	bf88      	it	hi
 8000296:	bd30      	pophi	{r4, r5, pc}
 8000298:	f011 4f00 	tst.w	r1, #2147483648	@ 0x80000000
 800029c:	ea4f 3101 	mov.w	r1, r1, lsl #12
 80002a0:	f44f 1c80 	mov.w	ip, #1048576	@ 0x100000
 80002a4:	ea4c 3111 	orr.w	r1, ip, r1, lsr #12
 80002a8:	d002      	beq.n	80002b0 <__adddf3+0x70>
 80002aa:	4240      	negs	r0, r0
 80002ac:	eb61 0141 	sbc.w	r1, r1, r1, lsl #1
 80002b0:	f013 4f00 	tst.w	r3, #2147483648	@ 0x80000000
 80002b4:	ea4f 3303 	mov.w	r3, r3, lsl #12
 80002b8:	ea4c 3313 	orr.w	r3, ip, r3, lsr #12
 80002bc:	d002      	beq.n	80002c4 <__adddf3+0x84>
 80002be:	4252      	negs	r2, r2
 80002c0:	eb63 0343 	sbc.w	r3, r3, r3, lsl #1
 80002c4:	ea94 0f05 	teq	r4, r5
 80002c8:	f000 80a7 	beq.w	800041a <__adddf3+0x1da>
 80002cc:	f1a4 0401 	sub.w	r4, r4, #1
 80002d0:	f1d5 0e20 	rsbs	lr, r5, #32
 80002d4:	db0d      	blt.n	80002f2 <__adddf3+0xb2>
 80002d6:	fa02 fc0e 	lsl.w	ip, r2, lr
 80002da:	fa22 f205 	lsr.w	r2, r2, r5
 80002de:	1880      	adds	r0, r0, r2
 80002e0:	f141 0100 	adc.w	r1, r1, #0
 80002e4:	fa03 f20e 	lsl.w	r2, r3, lr
 80002e8:	1880      	adds	r0, r0, r2
 80002ea:	fa43 f305 	asr.w	r3, r3, r5
 80002ee:	4159      	adcs	r1, r3
 80002f0:	e00e      	b.n	8000310 <__adddf3+0xd0>
 80002f2:	f1a5 0520 	sub.w	r5, r5, #32
 80002f6:	f10e 0e20 	add.w	lr, lr, #32
 80002fa:	2a01      	cmp	r2, #1
 80002fc:	fa03 fc0e 	lsl.w	ip, r3, lr
 8000300:	bf28      	it	cs
 8000302:	f04c 0c02 	orrcs.w	ip, ip, #2
 8000306:	fa43 f305 	asr.w	r3, r3, r5
 800030a:	18c0      	adds	r0, r0, r3
 800030c:	eb51 71e3 	adcs.w	r1, r1, r3, asr #31
 8000310:	f001 4500 	and.w	r5, r1, #2147483648	@ 0x80000000
 8000314:	d507      	bpl.n	8000326 <__adddf3+0xe6>
 8000316:	f04f 0e00 	mov.w	lr, #0
 800031a:	f1dc 0c00 	rsbs	ip, ip, #0
 800031e:	eb7e 0000 	sbcs.w	r0, lr, r0
 8000322:	eb6e 0101 	sbc.w	r1, lr, r1
 8000326:	f5b1 1f80 	cmp.w	r1, #1048576	@ 0x100000
 800032a:	d31b      	bcc.n	8000364 <__adddf3+0x124>
 800032c:	f5b1 1f00 	cmp.w	r1, #2097152	@ 0x200000
 8000330:	d30c      	bcc.n	800034c <__adddf3+0x10c>
 8000332:	0849      	lsrs	r1, r1, #1
 8000334:	ea5f 0030 	movs.w	r0, r0, rrx
 8000338:	ea4f 0c3c 	mov.w	ip, ip, rrx
 800033c:	f104 0401 	add.w	r4, r4, #1
 8000340:	ea4f 5244 	mov.w	r2, r4, lsl #21
 8000344:	f512 0f80 	cmn.w	r2, #4194304	@ 0x400000
 8000348:	f080 809a 	bcs.w	8000480 <__adddf3+0x240>
 800034c:	f1bc 4f00 	cmp.w	ip, #2147483648	@ 0x80000000
 8000350:	bf08      	it	eq
 8000352:	ea5f 0c50 	movseq.w	ip, r0, lsr #1
 8000356:	f150 0000 	adcs.w	r0, r0, #0
 800035a:	eb41 5104 	adc.w	r1, r1, r4, lsl #20
 800035e:	ea41 0105 	orr.w	r1, r1, r5
 8000362:	bd30      	pop	{r4, r5, pc}
 8000364:	ea5f 0c4c 	movs.w	ip, ip, lsl #1
 8000368:	4140      	adcs	r0, r0
 800036a:	eb41 0101 	adc.w	r1, r1, r1
 800036e:	3c01      	subs	r4, #1
 8000370:	bf28      	it	cs
 8000372:	f5b1 1f80 	cmpcs.w	r1, #1048576	@ 0x100000
 8000376:	d2e9      	bcs.n	800034c <__adddf3+0x10c>
 8000378:	f091 0f00 	teq	r1, #0
 800037c:	bf04      	itt	eq
 800037e:	4601      	moveq	r1, r0
 8000380:	2000      	moveq	r0, #0
 8000382:	fab1 f381 	clz	r3, r1
 8000386:	bf08      	it	eq
 8000388:	3320      	addeq	r3, #32
 800038a:	f1a3 030b 	sub.w	r3, r3, #11
 800038e:	f1b3 0220 	subs.w	r2, r3, #32
 8000392:	da0c      	bge.n	80003ae <__adddf3+0x16e>
 8000394:	320c      	adds	r2, #12
 8000396:	dd08      	ble.n	80003aa <__adddf3+0x16a>
 8000398:	f102 0c14 	add.w	ip, r2, #20
 800039c:	f1c2 020c 	rsb	r2, r2, #12
 80003a0:	fa01 f00c 	lsl.w	r0, r1, ip
 80003a4:	fa21 f102 	lsr.w	r1, r1, r2
 80003a8:	e00c      	b.n	80003c4 <__adddf3+0x184>
 80003aa:	f102 0214 	add.w	r2, r2, #20
 80003ae:	bfd8      	it	le
 80003b0:	f1c2 0c20 	rsble	ip, r2, #32
 80003b4:	fa01 f102 	lsl.w	r1, r1, r2
 80003b8:	fa20 fc0c 	lsr.w	ip, r0, ip
 80003bc:	bfdc      	itt	le
 80003be:	ea41 010c 	orrle.w	r1, r1, ip
 80003c2:	4090      	lslle	r0, r2
 80003c4:	1ae4      	subs	r4, r4, r3
 80003c6:	bfa2      	ittt	ge
 80003c8:	eb01 5104 	addge.w	r1, r1, r4, lsl #20
 80003cc:	4329      	orrge	r1, r5
 80003ce:	bd30      	popge	{r4, r5, pc}
 80003d0:	ea6f 0404 	mvn.w	r4, r4
 80003d4:	3c1f      	subs	r4, #31
 80003d6:	da1c      	bge.n	8000412 <__adddf3+0x1d2>
 80003d8:	340c      	adds	r4, #12
 80003da:	dc0e      	bgt.n	80003fa <__adddf3+0x1ba>
 80003dc:	f104 0414 	add.w	r4, r4, #20
 80003e0:	f1c4 0220 	rsb	r2, r4, #32
 80003e4:	fa20 f004 	lsr.w	r0, r0, r4
 80003e8:	fa01 f302 	lsl.w	r3, r1, r2
 80003ec:	ea40 0003 	orr.w	r0, r0, r3
 80003f0:	fa21 f304 	lsr.w	r3, r1, r4
 80003f4:	ea45 0103 	orr.w	r1, r5, r3
 80003f8:	bd30      	pop	{r4, r5, pc}
 80003fa:	f1c4 040c 	rsb	r4, r4, #12
 80003fe:	f1c4 0220 	rsb	r2, r4, #32
 8000402:	fa20 f002 	lsr.w	r0, r0, r2
 8000406:	fa01 f304 	lsl.w	r3, r1, r4
 800040a:	ea40 0003 	orr.w	r0, r0, r3
 800040e:	4629      	mov	r1, r5
 8000410:	bd30      	pop	{r4, r5, pc}
 8000412:	fa21 f004 	lsr.w	r0, r1, r4
 8000416:	4629      	mov	r1, r5
 8000418:	bd30      	pop	{r4, r5, pc}
 800041a:	f094 0f00 	teq	r4, #0
 800041e:	f483 1380 	eor.w	r3, r3, #1048576	@ 0x100000
 8000422:	bf06      	itte	eq
 8000424:	f481 1180 	eoreq.w	r1, r1, #1048576	@ 0x100000
 8000428:	3401      	addeq	r4, #1
 800042a:	3d01      	subne	r5, #1
 800042c:	e74e      	b.n	80002cc <__adddf3+0x8c>
 800042e:	ea7f 5c64 	mvns.w	ip, r4, asr #21
 8000432:	bf18      	it	ne
 8000434:	ea7f 5c65 	mvnsne.w	ip, r5, asr #21
 8000438:	d029      	beq.n	800048e <__adddf3+0x24e>
 800043a:	ea94 0f05 	teq	r4, r5
 800043e:	bf08      	it	eq
 8000440:	ea90 0f02 	teqeq	r0, r2
 8000444:	d005      	beq.n	8000452 <__adddf3+0x212>
 8000446:	ea54 0c00 	orrs.w	ip, r4, r0
 800044a:	bf04      	itt	eq
 800044c:	4619      	moveq	r1, r3
 800044e:	4610      	moveq	r0, r2
 8000450:	bd30      	pop	{r4, r5, pc}
 8000452:	ea91 0f03 	teq	r1, r3
 8000456:	bf1e      	ittt	ne
 8000458:	2100      	movne	r1, #0
 800045a:	2000      	movne	r0, #0
 800045c:	bd30      	popne	{r4, r5, pc}
 800045e:	ea5f 5c54 	movs.w	ip, r4, lsr #21
 8000462:	d105      	bne.n	8000470 <__adddf3+0x230>
 8000464:	0040      	lsls	r0, r0, #1
 8000466:	4149      	adcs	r1, r1
 8000468:	bf28      	it	cs
 800046a:	f041 4100 	orrcs.w	r1, r1, #2147483648	@ 0x80000000
 800046e:	bd30      	pop	{r4, r5, pc}
 8000470:	f514 0480 	adds.w	r4, r4, #4194304	@ 0x400000
 8000474:	bf3c      	itt	cc
 8000476:	f501 1180 	addcc.w	r1, r1, #1048576	@ 0x100000
 800047a:	bd30      	popcc	{r4, r5, pc}
 800047c:	f001 4500 	and.w	r5, r1, #2147483648	@ 0x80000000
 8000480:	f045 41fe 	orr.w	r1, r5, #2130706432	@ 0x7f000000
 8000484:	f441 0170 	orr.w	r1, r1, #15728640	@ 0xf00000
 8000488:	f04f 0000 	mov.w	r0, #0
 800048c:	bd30      	pop	{r4, r5, pc}
 800048e:	ea7f 5c64 	mvns.w	ip, r4, asr #21
 8000492:	bf1a      	itte	ne
 8000494:	4619      	movne	r1, r3
 8000496:	4610      	movne	r0, r2
 8000498:	ea7f 5c65 	mvnseq.w	ip, r5, asr #21
 800049c:	bf1c      	itt	ne
 800049e:	460b      	movne	r3, r1
 80004a0:	4602      	movne	r2, r0
 80004a2:	ea50 3401 	orrs.w	r4, r0, r1, lsl #12
 80004a6:	bf06      	itte	eq
 80004a8:	ea52 3503 	orrseq.w	r5, r2, r3, lsl #12
 80004ac:	ea91 0f03 	teqeq	r1, r3
 80004b0:	f441 2100 	orrne.w	r1, r1, #524288	@ 0x80000
 80004b4:	bd30      	pop	{r4, r5, pc}
 80004b6:	bf00      	nop

080004b8 <__aeabi_ui2d>:
 80004b8:	f090 0f00 	teq	r0, #0
 80004bc:	bf04      	itt	eq
 80004be:	2100      	moveq	r1, #0
 80004c0:	4770      	bxeq	lr
 80004c2:	b530      	push	{r4, r5, lr}
 80004c4:	f44f 6480 	mov.w	r4, #1024	@ 0x400
 80004c8:	f104 0432 	add.w	r4, r4, #50	@ 0x32
 80004cc:	f04f 0500 	mov.w	r5, #0
 80004d0:	f04f 0100 	mov.w	r1, #0
 80004d4:	e750      	b.n	8000378 <__adddf3+0x138>
 80004d6:	bf00      	nop

080004d8 <__aeabi_i2d>:
 80004d8:	f090 0f00 	teq	r0, #0
 80004dc:	bf04      	itt	eq
 80004de:	2100      	moveq	r1, #0
 80004e0:	4770      	bxeq	lr
 80004e2:	b530      	push	{r4, r5, lr}
 80004e4:	f44f 6480 	mov.w	r4, #1024	@ 0x400
 80004e8:	f104 0432 	add.w	r4, r4, #50	@ 0x32
 80004ec:	f010 4500 	ands.w	r5, r0, #2147483648	@ 0x80000000
 80004f0:	bf48      	it	mi
 80004f2:	4240      	negmi	r0, r0
 80004f4:	f04f 0100 	mov.w	r1, #0
 80004f8:	e73e      	b.n	8000378 <__adddf3+0x138>
 80004fa:	bf00      	nop

080004fc <__aeabi_f2d>:
 80004fc:	0042      	lsls	r2, r0, #1
 80004fe:	ea4f 01e2 	mov.w	r1, r2, asr #3
 8000502:	ea4f 0131 	mov.w	r1, r1, rrx
 8000506:	ea4f 7002 	mov.w	r0, r2, lsl #28
 800050a:	bf1f      	itttt	ne
 800050c:	f012 437f 	andsne.w	r3, r2, #4278190080	@ 0xff000000
 8000510:	f093 4f7f 	teqne	r3, #4278190080	@ 0xff000000
 8000514:	f081 5160 	eorne.w	r1, r1, #939524096	@ 0x38000000
 8000518:	4770      	bxne	lr
 800051a:	f032 427f 	bics.w	r2, r2, #4278190080	@ 0xff000000
 800051e:	bf08      	it	eq
 8000520:	4770      	bxeq	lr
 8000522:	f093 4f7f 	teq	r3, #4278190080	@ 0xff000000
 8000526:	bf04      	itt	eq
 8000528:	f441 2100 	orreq.w	r1, r1, #524288	@ 0x80000
 800052c:	4770      	bxeq	lr
 800052e:	b530      	push	{r4, r5, lr}
 8000530:	f44f 7460 	mov.w	r4, #896	@ 0x380
 8000534:	f001 4500 	and.w	r5, r1, #2147483648	@ 0x80000000
 8000538:	f021 4100 	bic.w	r1, r1, #2147483648	@ 0x80000000
 800053c:	e71c      	b.n	8000378 <__adddf3+0x138>
 800053e:	bf00      	nop

08000540 <__aeabi_ul2d>:
 8000540:	ea50 0201 	orrs.w	r2, r0, r1
 8000544:	bf08      	it	eq
 8000546:	4770      	bxeq	lr
 8000548:	b530      	push	{r4, r5, lr}
 800054a:	f04f 0500 	mov.w	r5, #0
 800054e:	e00a      	b.n	8000566 <__aeabi_l2d+0x16>

08000550 <__aeabi_l2d>:
 8000550:	ea50 0201 	orrs.w	r2, r0, r1
 8000554:	bf08      	it	eq
 8000556:	4770      	bxeq	lr
 8000558:	b530      	push	{r4, r5, lr}
 800055a:	f011 4500 	ands.w	r5, r1, #2147483648	@ 0x80000000
 800055e:	d502      	bpl.n	8000566 <__aeabi_l2d+0x16>
 8000560:	4240      	negs	r0, r0
 8000562:	eb61 0141 	sbc.w	r1, r1, r1, lsl #1
 8000566:	f44f 6480 	mov.w	r4, #1024	@ 0x400
 800056a:	f104 0432 	add.w	r4, r4, #50	@ 0x32
 800056e:	ea5f 5c91 	movs.w	ip, r1, lsr #22
 8000572:	f43f aed8 	beq.w	8000326 <__adddf3+0xe6>
 8000576:	f04f 0203 	mov.w	r2, #3
 800057a:	ea5f 0cdc 	movs.w	ip, ip, lsr #3
 800057e:	bf18      	it	ne
 8000580:	3203      	addne	r2, #3
 8000582:	ea5f 0cdc 	movs.w	ip, ip, lsr #3
 8000586:	bf18      	it	ne
 8000588:	3203      	addne	r2, #3
 800058a:	eb02 02dc 	add.w	r2, r2, ip, lsr #3
 800058e:	f1c2 0320 	rsb	r3, r2, #32
 8000592:	fa00 fc03 	lsl.w	ip, r0, r3
 8000596:	fa20 f002 	lsr.w	r0, r0, r2
 800059a:	fa01 fe03 	lsl.w	lr, r1, r3
 800059e:	ea40 000e 	orr.w	r0, r0, lr
 80005a2:	fa21 f102 	lsr.w	r1, r1, r2
 80005a6:	4414      	add	r4, r2
 80005a8:	e6bd      	b.n	8000326 <__adddf3+0xe6>
 80005aa:	bf00      	nop

080005ac <__aeabi_dmul>:
 80005ac:	b570      	push	{r4, r5, r6, lr}
 80005ae:	f04f 0cff 	mov.w	ip, #255	@ 0xff
 80005b2:	f44c 6ce0 	orr.w	ip, ip, #1792	@ 0x700
 80005b6:	ea1c 5411 	ands.w	r4, ip, r1, lsr #20
 80005ba:	bf1d      	ittte	ne
 80005bc:	ea1c 5513 	andsne.w	r5, ip, r3, lsr #20
 80005c0:	ea94 0f0c 	teqne	r4, ip
 80005c4:	ea95 0f0c 	teqne	r5, ip
 80005c8:	f000 f8de 	bleq	8000788 <__aeabi_dmul+0x1dc>
 80005cc:	442c      	add	r4, r5
 80005ce:	ea81 0603 	eor.w	r6, r1, r3
 80005d2:	ea21 514c 	bic.w	r1, r1, ip, lsl #21
 80005d6:	ea23 534c 	bic.w	r3, r3, ip, lsl #21
 80005da:	ea50 3501 	orrs.w	r5, r0, r1, lsl #12
 80005de:	bf18      	it	ne
 80005e0:	ea52 3503 	orrsne.w	r5, r2, r3, lsl #12
 80005e4:	f441 1180 	orr.w	r1, r1, #1048576	@ 0x100000
 80005e8:	f443 1380 	orr.w	r3, r3, #1048576	@ 0x100000
 80005ec:	d038      	beq.n	8000660 <__aeabi_dmul+0xb4>
 80005ee:	fba0 ce02 	umull	ip, lr, r0, r2
 80005f2:	f04f 0500 	mov.w	r5, #0
 80005f6:	fbe1 e502 	umlal	lr, r5, r1, r2
 80005fa:	f006 4200 	and.w	r2, r6, #2147483648	@ 0x80000000
 80005fe:	fbe0 e503 	umlal	lr, r5, r0, r3
 8000602:	f04f 0600 	mov.w	r6, #0
 8000606:	fbe1 5603 	umlal	r5, r6, r1, r3
 800060a:	f09c 0f00 	teq	ip, #0
 800060e:	bf18      	it	ne
 8000610:	f04e 0e01 	orrne.w	lr, lr, #1
 8000614:	f1a4 04ff 	sub.w	r4, r4, #255	@ 0xff
 8000618:	f5b6 7f00 	cmp.w	r6, #512	@ 0x200
 800061c:	f564 7440 	sbc.w	r4, r4, #768	@ 0x300
 8000620:	d204      	bcs.n	800062c <__aeabi_dmul+0x80>
 8000622:	ea5f 0e4e 	movs.w	lr, lr, lsl #1
 8000626:	416d      	adcs	r5, r5
 8000628:	eb46 0606 	adc.w	r6, r6, r6
 800062c:	ea42 21c6 	orr.w	r1, r2, r6, lsl #11
 8000630:	ea41 5155 	orr.w	r1, r1, r5, lsr #21
 8000634:	ea4f 20c5 	mov.w	r0, r5, lsl #11
 8000638:	ea40 505e 	orr.w	r0, r0, lr, lsr #21
 800063c:	ea4f 2ece 	mov.w	lr, lr, lsl #11
 8000640:	f1b4 0cfd 	subs.w	ip, r4, #253	@ 0xfd
 8000644:	bf88      	it	hi
 8000646:	f5bc 6fe0 	cmphi.w	ip, #1792	@ 0x700
 800064a:	d81e      	bhi.n	800068a <__aeabi_dmul+0xde>
 800064c:	f1be 4f00 	cmp.w	lr, #2147483648	@ 0x80000000
 8000650:	bf08      	it	eq
 8000652:	ea5f 0e50 	movseq.w	lr, r0, lsr #1
 8000656:	f150 0000 	adcs.w	r0, r0, #0
 800065a:	eb41 5104 	adc.w	r1, r1, r4, lsl #20
 800065e:	bd70      	pop	{r4, r5, r6, pc}
 8000660:	f006 4600 	and.w	r6, r6, #2147483648	@ 0x80000000
 8000664:	ea46 0101 	orr.w	r1, r6, r1
 8000668:	ea40 0002 	orr.w	r0, r0, r2
 800066c:	ea81 0103 	eor.w	r1, r1, r3
 8000670:	ebb4 045c 	subs.w	r4, r4, ip, lsr #1
 8000674:	bfc2      	ittt	gt
 8000676:	ebd4 050c 	rsbsgt	r5, r4, ip
 800067a:	ea41 5104 	orrgt.w	r1, r1, r4, lsl #20
 800067e:	bd70      	popgt	{r4, r5, r6, pc}
 8000680:	f441 1180 	orr.w	r1, r1, #1048576	@ 0x100000
 8000684:	f04f 0e00 	mov.w	lr, #0
 8000688:	3c01      	subs	r4, #1
 800068a:	f300 80ab 	bgt.w	80007e4 <__aeabi_dmul+0x238>
 800068e:	f114 0f36 	cmn.w	r4, #54	@ 0x36
 8000692:	bfde      	ittt	le
 8000694:	2000      	movle	r0, #0
 8000696:	f001 4100 	andle.w	r1, r1, #2147483648	@ 0x80000000
 800069a:	bd70      	pople	{r4, r5, r6, pc}
 800069c:	f1c4 0400 	rsb	r4, r4, #0
 80006a0:	3c20      	subs	r4, #32
 80006a2:	da35      	bge.n	8000710 <__aeabi_dmul+0x164>
 80006a4:	340c      	adds	r4, #12
 80006a6:	dc1b      	bgt.n	80006e0 <__aeabi_dmul+0x134>
 80006a8:	f104 0414 	add.w	r4, r4, #20
 80006ac:	f1c4 0520 	rsb	r5, r4, #32
 80006b0:	fa00 f305 	lsl.w	r3, r0, r5
 80006b4:	fa20 f004 	lsr.w	r0, r0, r4
 80006b8:	fa01 f205 	lsl.w	r2, r1, r5
 80006bc:	ea40 0002 	orr.w	r0, r0, r2
 80006c0:	f001 4200 	and.w	r2, r1, #2147483648	@ 0x80000000
 80006c4:	f021 4100 	bic.w	r1, r1, #2147483648	@ 0x80000000
 80006c8:	eb10 70d3 	adds.w	r0, r0, r3, lsr #31
 80006cc:	fa21 f604 	lsr.w	r6, r1, r4
 80006d0:	eb42 0106 	adc.w	r1, r2, r6
 80006d4:	ea5e 0e43 	orrs.w	lr, lr, r3, lsl #1
 80006d8:	bf08      	it	eq
 80006da:	ea20 70d3 	biceq.w	r0, r0, r3, lsr #31
 80006de:	bd70      	pop	{r4, r5, r6, pc}
 80006e0:	f1c4 040c 	rsb	r4, r4, #12
 80006e4:	f1c4 0520 	rsb	r5, r4, #32
 80006e8:	fa00 f304 	lsl.w	r3, r0, r4
 80006ec:	fa20 f005 	lsr.w	r0, r0, r5
 80006f0:	fa01 f204 	lsl.w	r2, r1, r4
 80006f4:	ea40 0002 	orr.w	r0, r0, r2
 80006f8:	f001 4100 	and.w	r1, r1, #2147483648	@ 0x80000000
 80006fc:	eb10 70d3 	adds.w	r0, r0, r3, lsr #31
 8000700:	f141 0100 	adc.w	r1, r1, #0
 8000704:	ea5e 0e43 	orrs.w	lr, lr, r3, lsl #1
 8000708:	bf08      	it	eq
 800070a:	ea20 70d3 	biceq.w	r0, r0, r3, lsr #31
 800070e:	bd70      	pop	{r4, r5, r6, pc}
 8000710:	f1c4 0520 	rsb	r5, r4, #32
 8000714:	fa00 f205 	lsl.w	r2, r0, r5
 8000718:	ea4e 0e02 	orr.w	lr, lr, r2
 800071c:	fa20 f304 	lsr.w	r3, r0, r4
 8000720:	fa01 f205 	lsl.w	r2, r1, r5
 8000724:	ea43 0302 	orr.w	r3, r3, r2
 8000728:	fa21 f004 	lsr.w	r0, r1, r4
 800072c:	f001 4100 	and.w	r1, r1, #2147483648	@ 0x80000000
 8000730:	fa21 f204 	lsr.w	r2, r1, r4
 8000734:	ea20 0002 	bic.w	r0, r0, r2
 8000738:	eb00 70d3 	add.w	r0, r0, r3, lsr #31
 800073c:	ea5e 0e43 	orrs.w	lr, lr, r3, lsl #1
 8000740:	bf08      	it	eq
 8000742:	ea20 70d3 	biceq.w	r0, r0, r3, lsr #31
 8000746:	bd70      	pop	{r4, r5, r6, pc}
 8000748:	f094 0f00 	teq	r4, #0
 800074c:	d10f      	bne.n	800076e <__aeabi_dmul+0x1c2>
 800074e:	f001 4600 	and.w	r6, r1, #2147483648	@ 0x80000000
 8000752:	0040      	lsls	r0, r0, #1
 8000754:	eb41 0101 	adc.w	r1, r1, r1
 8000758:	f411 1f80 	tst.w	r1, #1048576	@ 0x100000
 800075c:	bf08      	it	eq
 800075e:	3c01      	subeq	r4, #1
 8000760:	d0f7      	beq.n	8000752 <__aeabi_dmul+0x1a6>
 8000762:	ea41 0106 	orr.w	r1, r1, r6
 8000766:	f095 0f00 	teq	r5, #0
 800076a:	bf18      	it	ne
 800076c:	4770      	bxne	lr
 800076e:	f003 4600 	and.w	r6, r3, #2147483648	@ 0x80000000
 8000772:	0052      	lsls	r2, r2, #1
 8000774:	eb43 0303 	adc.w	r3, r3, r3
 8000778:	f413 1f80 	tst.w	r3, #1048576	@ 0x100000
 800077c:	bf08      	it	eq
 800077e:	3d01      	subeq	r5, #1
 8000780:	d0f7      	beq.n	8000772 <__aeabi_dmul+0x1c6>
 8000782:	ea43 0306 	orr.w	r3, r3, r6
 8000786:	4770      	bx	lr
 8000788:	ea94 0f0c 	teq	r4, ip
 800078c:	ea0c 5513 	and.w	r5, ip, r3, lsr #20
 8000790:	bf18      	it	ne
 8000792:	ea95 0f0c 	teqne	r5, ip
 8000796:	d00c      	beq.n	80007b2 <__aeabi_dmul+0x206>
 8000798:	ea50 0641 	orrs.w	r6, r0, r1, lsl #1
 800079c:	bf18      	it	ne
 800079e:	ea52 0643 	orrsne.w	r6, r2, r3, lsl #1
 80007a2:	d1d1      	bne.n	8000748 <__aeabi_dmul+0x19c>
 80007a4:	ea81 0103 	eor.w	r1, r1, r3
 80007a8:	f001 4100 	and.w	r1, r1, #2147483648	@ 0x80000000
 80007ac:	f04f 0000 	mov.w	r0, #0
 80007b0:	bd70      	pop	{r4, r5, r6, pc}
 80007b2:	ea50 0641 	orrs.w	r6, r0, r1, lsl #1
 80007b6:	bf06      	itte	eq
 80007b8:	4610      	moveq	r0, r2
 80007ba:	4619      	moveq	r1, r3
 80007bc:	ea52 0643 	orrsne.w	r6, r2, r3, lsl #1
 80007c0:	d019      	beq.n	80007f6 <__aeabi_dmul+0x24a>
 80007c2:	ea94 0f0c 	teq	r4, ip
 80007c6:	d102      	bne.n	80007ce <__aeabi_dmul+0x222>
 80007c8:	ea50 3601 	orrs.w	r6, r0, r1, lsl #12
 80007cc:	d113      	bne.n	80007f6 <__aeabi_dmul+0x24a>
 80007ce:	ea95 0f0c 	teq	r5, ip
 80007d2:	d105      	bne.n	80007e0 <__aeabi_dmul+0x234>
 80007d4:	ea52 3603 	orrs.w	r6, r2, r3, lsl #12
 80007d8:	bf1c      	itt	ne
 80007da:	4610      	movne	r0, r2
 80007dc:	4619      	movne	r1, r3
 80007de:	d10a      	bne.n	80007f6 <__aeabi_dmul+0x24a>
 80007e0:	ea81 0103 	eor.w	r1, r1, r3
 80007e4:	f001 4100 	and.w	r1, r1, #2147483648	@ 0x80000000
 80007e8:	f041 41fe 	orr.w	r1, r1, #2130706432	@ 0x7f000000
 80007ec:	f441 0170 	orr.w	r1, r1, #15728640	@ 0xf00000
 80007f0:	f04f 0000 	mov.w	r0, #0
 80007f4:	bd70      	pop	{r4, r5, r6, pc}
 80007f6:	f041 41fe 	orr.w	r1, r1, #2130706432	@ 0x7f000000
 80007fa:	f441 0178 	orr.w	r1, r1, #16252928	@ 0xf80000
 80007fe:	bd70      	pop	{r4, r5, r6, pc}

08000800 <__aeabi_ddiv>:
 8000800:	b570      	push	{r4, r5, r6, lr}
 8000802:	f04f 0cff 	mov.w	ip, #255	@ 0xff
 8000806:	f44c 6ce0 	orr.w	ip, ip, #1792	@ 0x700
 800080a:	ea1c 5411 	ands.w	r4, ip, r1, lsr #20
 800080e:	bf1d      	ittte	ne
 8000810:	ea1c 5513 	andsne.w	r5, ip, r3, lsr #20
 8000814:	ea94 0f0c 	teqne	r4, ip
 8000818:	ea95 0f0c 	teqne	r5, ip
 800081c:	f000 f8a7 	bleq	800096e <__aeabi_ddiv+0x16e>
 8000820:	eba4 0405 	sub.w	r4, r4, r5
 8000824:	ea81 0e03 	eor.w	lr, r1, r3
 8000828:	ea52 3503 	orrs.w	r5, r2, r3, lsl #12
 800082c:	ea4f 3101 	mov.w	r1, r1, lsl #12
 8000830:	f000 8088 	beq.w	8000944 <__aeabi_ddiv+0x144>
 8000834:	ea4f 3303 	mov.w	r3, r3, lsl #12
 8000838:	f04f 5580 	mov.w	r5, #268435456	@ 0x10000000
 800083c:	ea45 1313 	orr.w	r3, r5, r3, lsr #4
 8000840:	ea43 6312 	orr.w	r3, r3, r2, lsr #24
 8000844:	ea4f 2202 	mov.w	r2, r2, lsl #8
 8000848:	ea45 1511 	orr.w	r5, r5, r1, lsr #4
 800084c:	ea45 6510 	orr.w	r5, r5, r0, lsr #24
 8000850:	ea4f 2600 	mov.w	r6, r0, lsl #8
 8000854:	f00e 4100 	and.w	r1, lr, #2147483648	@ 0x80000000
 8000858:	429d      	cmp	r5, r3
 800085a:	bf08      	it	eq
 800085c:	4296      	cmpeq	r6, r2
 800085e:	f144 04fd 	adc.w	r4, r4, #253	@ 0xfd
 8000862:	f504 7440 	add.w	r4, r4, #768	@ 0x300
 8000866:	d202      	bcs.n	800086e <__aeabi_ddiv+0x6e>
 8000868:	085b      	lsrs	r3, r3, #1
 800086a:	ea4f 0232 	mov.w	r2, r2, rrx
 800086e:	1ab6      	subs	r6, r6, r2
 8000870:	eb65 0503 	sbc.w	r5, r5, r3
 8000874:	085b      	lsrs	r3, r3, #1
 8000876:	ea4f 0232 	mov.w	r2, r2, rrx
 800087a:	f44f 1080 	mov.w	r0, #1048576	@ 0x100000
 800087e:	f44f 2c00 	mov.w	ip, #524288	@ 0x80000
 8000882:	ebb6 0e02 	subs.w	lr, r6, r2
 8000886:	eb75 0e03 	sbcs.w	lr, r5, r3
 800088a:	bf22      	ittt	cs
 800088c:	1ab6      	subcs	r6, r6, r2
 800088e:	4675      	movcs	r5, lr
 8000890:	ea40 000c 	orrcs.w	r0, r0, ip
 8000894:	085b      	lsrs	r3, r3, #1
 8000896:	ea4f 0232 	mov.w	r2, r2, rrx
 800089a:	ebb6 0e02 	subs.w	lr, r6, r2
 800089e:	eb75 0e03 	sbcs.w	lr, r5, r3
 80008a2:	bf22      	ittt	cs
 80008a4:	1ab6      	subcs	r6, r6, r2
 80008a6:	4675      	movcs	r5, lr
 80008a8:	ea40 005c 	orrcs.w	r0, r0, ip, lsr #1
 80008ac:	085b      	lsrs	r3, r3, #1
 80008ae:	ea4f 0232 	mov.w	r2, r2, rrx
 80008b2:	ebb6 0e02 	subs.w	lr, r6, r2
 80008b6:	eb75 0e03 	sbcs.w	lr, r5, r3
 80008ba:	bf22      	ittt	cs
 80008bc:	1ab6      	subcs	r6, r6, r2
 80008be:	4675      	movcs	r5, lr
 80008c0:	ea40 009c 	orrcs.w	r0, r0, ip, lsr #2
 80008c4:	085b      	lsrs	r3, r3, #1
 80008c6:	ea4f 0232 	mov.w	r2, r2, rrx
 80008ca:	ebb6 0e02 	subs.w	lr, r6, r2
 80008ce:	eb75 0e03 	sbcs.w	lr, r5, r3
 80008d2:	bf22      	ittt	cs
 80008d4:	1ab6      	subcs	r6, r6, r2
 80008d6:	4675      	movcs	r5, lr
 80008d8:	ea40 00dc 	orrcs.w	r0, r0, ip, lsr #3
 80008dc:	ea55 0e06 	orrs.w	lr, r5, r6
 80008e0:	d018      	beq.n	8000914 <__aeabi_ddiv+0x114>
 80008e2:	ea4f 1505 	mov.w	r5, r5, lsl #4
 80008e6:	ea45 7516 	orr.w	r5, r5, r6, lsr #28
 80008ea:	ea4f 1606 	mov.w	r6, r6, lsl #4
 80008ee:	ea4f 03c3 	mov.w	r3, r3, lsl #3
 80008f2:	ea43 7352 	orr.w	r3, r3, r2, lsr #29
 80008f6:	ea4f 02c2 	mov.w	r2, r2, lsl #3
 80008fa:	ea5f 1c1c 	movs.w	ip, ip, lsr #4
 80008fe:	d1c0      	bne.n	8000882 <__aeabi_ddiv+0x82>
 8000900:	f411 1f80 	tst.w	r1, #1048576	@ 0x100000
 8000904:	d10b      	bne.n	800091e <__aeabi_ddiv+0x11e>
 8000906:	ea41 0100 	orr.w	r1, r1, r0
 800090a:	f04f 0000 	mov.w	r0, #0
 800090e:	f04f 4c00 	mov.w	ip, #2147483648	@ 0x80000000
 8000912:	e7b6      	b.n	8000882 <__aeabi_ddiv+0x82>
 8000914:	f411 1f80 	tst.w	r1, #1048576	@ 0x100000
 8000918:	bf04      	itt	eq
 800091a:	4301      	orreq	r1, r0
 800091c:	2000      	moveq	r0, #0
 800091e:	f1b4 0cfd 	subs.w	ip, r4, #253	@ 0xfd
 8000922:	bf88      	it	hi
 8000924:	f5bc 6fe0 	cmphi.w	ip, #1792	@ 0x700
 8000928:	f63f aeaf 	bhi.w	800068a <__aeabi_dmul+0xde>
 800092c:	ebb5 0c03 	subs.w	ip, r5, r3
 8000930:	bf04      	itt	eq
 8000932:	ebb6 0c02 	subseq.w	ip, r6, r2
 8000936:	ea5f 0c50 	movseq.w	ip, r0, lsr #1
 800093a:	f150 0000 	adcs.w	r0, r0, #0
 800093e:	eb41 5104 	adc.w	r1, r1, r4, lsl #20
 8000942:	bd70      	pop	{r4, r5, r6, pc}
 8000944:	f00e 4e00 	and.w	lr, lr, #2147483648	@ 0x80000000
 8000948:	ea4e 3111 	orr.w	r1, lr, r1, lsr #12
 800094c:	eb14 045c 	adds.w	r4, r4, ip, lsr #1
 8000950:	bfc2      	ittt	gt
 8000952:	ebd4 050c 	rsbsgt	r5, r4, ip
 8000956:	ea41 5104 	orrgt.w	r1, r1, r4, lsl #20
 800095a:	bd70      	popgt	{r4, r5, r6, pc}
 800095c:	f441 1180 	orr.w	r1, r1, #1048576	@ 0x100000
 8000960:	f04f 0e00 	mov.w	lr, #0
 8000964:	3c01      	subs	r4, #1
 8000966:	e690      	b.n	800068a <__aeabi_dmul+0xde>
 8000968:	ea45 0e06 	orr.w	lr, r5, r6
 800096c:	e68d      	b.n	800068a <__aeabi_dmul+0xde>
 800096e:	ea0c 5513 	and.w	r5, ip, r3, lsr #20
 8000972:	ea94 0f0c 	teq	r4, ip
 8000976:	bf08      	it	eq
 8000978:	ea95 0f0c 	teqeq	r5, ip
 800097c:	f43f af3b 	beq.w	80007f6 <__aeabi_dmul+0x24a>
 8000980:	ea94 0f0c 	teq	r4, ip
 8000984:	d10a      	bne.n	800099c <__aeabi_ddiv+0x19c>
 8000986:	ea50 3401 	orrs.w	r4, r0, r1, lsl #12
 800098a:	f47f af34 	bne.w	80007f6 <__aeabi_dmul+0x24a>
 800098e:	ea95 0f0c 	teq	r5, ip
 8000992:	f47f af25 	bne.w	80007e0 <__aeabi_dmul+0x234>
 8000996:	4610      	mov	r0, r2
 8000998:	4619      	mov	r1, r3
 800099a:	e72c      	b.n	80007f6 <__aeabi_dmul+0x24a>
 800099c:	ea95 0f0c 	teq	r5, ip
 80009a0:	d106      	bne.n	80009b0 <__aeabi_ddiv+0x1b0>
 80009a2:	ea52 3503 	orrs.w	r5, r2, r3, lsl #12
 80009a6:	f43f aefd 	beq.w	80007a4 <__aeabi_dmul+0x1f8>
 80009aa:	4610      	mov	r0, r2
 80009ac:	4619      	mov	r1, r3
 80009ae:	e722      	b.n	80007f6 <__aeabi_dmul+0x24a>
 80009b0:	ea50 0641 	orrs.w	r6, r0, r1, lsl #1
 80009b4:	bf18      	it	ne
 80009b6:	ea52 0643 	orrsne.w	r6, r2, r3, lsl #1
 80009ba:	f47f aec5 	bne.w	8000748 <__aeabi_dmul+0x19c>
 80009be:	ea50 0441 	orrs.w	r4, r0, r1, lsl #1
 80009c2:	f47f af0d 	bne.w	80007e0 <__aeabi_dmul+0x234>
 80009c6:	ea52 0543 	orrs.w	r5, r2, r3, lsl #1
 80009ca:	f47f aeeb 	bne.w	80007a4 <__aeabi_dmul+0x1f8>
 80009ce:	e712      	b.n	80007f6 <__aeabi_dmul+0x24a>

080009d0 <__gedf2>:
 80009d0:	f04f 3cff 	mov.w	ip, #4294967295
 80009d4:	e006      	b.n	80009e4 <__cmpdf2+0x4>
 80009d6:	bf00      	nop

080009d8 <__ledf2>:
 80009d8:	f04f 0c01 	mov.w	ip, #1
 80009dc:	e002      	b.n	80009e4 <__cmpdf2+0x4>
 80009de:	bf00      	nop

080009e0 <__cmpdf2>:
 80009e0:	f04f 0c01 	mov.w	ip, #1
 80009e4:	f84d cd04 	str.w	ip, [sp, #-4]!
 80009e8:	ea4f 0c41 	mov.w	ip, r1, lsl #1
 80009ec:	ea7f 5c6c 	mvns.w	ip, ip, asr #21
 80009f0:	ea4f 0c43 	mov.w	ip, r3, lsl #1
 80009f4:	bf18      	it	ne
 80009f6:	ea7f 5c6c 	mvnsne.w	ip, ip, asr #21
 80009fa:	d01b      	beq.n	8000a34 <__cmpdf2+0x54>
 80009fc:	b001      	add	sp, #4
 80009fe:	ea50 0c41 	orrs.w	ip, r0, r1, lsl #1
 8000a02:	bf0c      	ite	eq
 8000a04:	ea52 0c43 	orrseq.w	ip, r2, r3, lsl #1
 8000a08:	ea91 0f03 	teqne	r1, r3
 8000a0c:	bf02      	ittt	eq
 8000a0e:	ea90 0f02 	teqeq	r0, r2
 8000a12:	2000      	moveq	r0, #0
 8000a14:	4770      	bxeq	lr
 8000a16:	f110 0f00 	cmn.w	r0, #0
 8000a1a:	ea91 0f03 	teq	r1, r3
 8000a1e:	bf58      	it	pl
 8000a20:	4299      	cmppl	r1, r3
 8000a22:	bf08      	it	eq
 8000a24:	4290      	cmpeq	r0, r2
 8000a26:	bf2c      	ite	cs
 8000a28:	17d8      	asrcs	r0, r3, #31
 8000a2a:	ea6f 70e3 	mvncc.w	r0, r3, asr #31
 8000a2e:	f040 0001 	orr.w	r0, r0, #1
 8000a32:	4770      	bx	lr
 8000a34:	ea4f 0c41 	mov.w	ip, r1, lsl #1
 8000a38:	ea7f 5c6c 	mvns.w	ip, ip, asr #21
 8000a3c:	d102      	bne.n	8000a44 <__cmpdf2+0x64>
 8000a3e:	ea50 3c01 	orrs.w	ip, r0, r1, lsl #12
 8000a42:	d107      	bne.n	8000a54 <__cmpdf2+0x74>
 8000a44:	ea4f 0c43 	mov.w	ip, r3, lsl #1
 8000a48:	ea7f 5c6c 	mvns.w	ip, ip, asr #21
 8000a4c:	d1d6      	bne.n	80009fc <__cmpdf2+0x1c>
 8000a4e:	ea52 3c03 	orrs.w	ip, r2, r3, lsl #12
 8000a52:	d0d3      	beq.n	80009fc <__cmpdf2+0x1c>
 8000a54:	f85d 0b04 	ldr.w	r0, [sp], #4
 8000a58:	4770      	bx	lr
 8000a5a:	bf00      	nop

08000a5c <__aeabi_cdrcmple>:
 8000a5c:	4684      	mov	ip, r0
 8000a5e:	4610      	mov	r0, r2
 8000a60:	4662      	mov	r2, ip
 8000a62:	468c      	mov	ip, r1
 8000a64:	4619      	mov	r1, r3
 8000a66:	4663      	mov	r3, ip
 8000a68:	e000      	b.n	8000a6c <__aeabi_cdcmpeq>
 8000a6a:	bf00      	nop

08000a6c <__aeabi_cdcmpeq>:
 8000a6c:	b501      	push	{r0, lr}
 8000a6e:	f7ff ffb7 	bl	80009e0 <__cmpdf2>
 8000a72:	2800      	cmp	r0, #0
 8000a74:	bf48      	it	mi
 8000a76:	f110 0f00 	cmnmi.w	r0, #0
 8000a7a:	bd01      	pop	{r0, pc}

08000a7c <__aeabi_dcmpeq>:
 8000a7c:	f84d ed08 	str.w	lr, [sp, #-8]!
 8000a80:	f7ff fff4 	bl	8000a6c <__aeabi_cdcmpeq>
 8000a84:	bf0c      	ite	eq
 8000a86:	2001      	moveq	r0, #1
 8000a88:	2000      	movne	r0, #0
 8000a8a:	f85d fb08 	ldr.w	pc, [sp], #8
 8000a8e:	bf00      	nop

08000a90 <__aeabi_dcmplt>:
 8000a90:	f84d ed08 	str.w	lr, [sp, #-8]!
 8000a94:	f7ff ffea 	bl	8000a6c <__aeabi_cdcmpeq>
 8000a98:	bf34      	ite	cc
 8000a9a:	2001      	movcc	r0, #1
 8000a9c:	2000      	movcs	r0, #0
 8000a9e:	f85d fb08 	ldr.w	pc, [sp], #8
 8000aa2:	bf00      	nop

08000aa4 <__aeabi_dcmple>:
 8000aa4:	f84d ed08 	str.w	lr, [sp, #-8]!
 8000aa8:	f7ff ffe0 	bl	8000a6c <__aeabi_cdcmpeq>
 8000aac:	bf94      	ite	ls
 8000aae:	2001      	movls	r0, #1
 8000ab0:	2000      	movhi	r0, #0
 8000ab2:	f85d fb08 	ldr.w	pc, [sp], #8
 8000ab6:	bf00      	nop

08000ab8 <__aeabi_dcmpge>:
 8000ab8:	f84d ed08 	str.w	lr, [sp, #-8]!
 8000abc:	f7ff ffce 	bl	8000a5c <__aeabi_cdrcmple>
 8000ac0:	bf94      	ite	ls
 8000ac2:	2001      	movls	r0, #1
 8000ac4:	2000      	movhi	r0, #0
 8000ac6:	f85d fb08 	ldr.w	pc, [sp], #8
 8000aca:	bf00      	nop

08000acc <__aeabi_dcmpgt>:
 8000acc:	f84d ed08 	str.w	lr, [sp, #-8]!
 8000ad0:	f7ff ffc4 	bl	8000a5c <__aeabi_cdrcmple>
 8000ad4:	bf34      	ite	cc
 8000ad6:	2001      	movcc	r0, #1
 8000ad8:	2000      	movcs	r0, #0
 8000ada:	f85d fb08 	ldr.w	pc, [sp], #8
 8000ade:	bf00      	nop

08000ae0 <__aeabi_d2uiz>:
 8000ae0:	004a      	lsls	r2, r1, #1
 8000ae2:	d211      	bcs.n	8000b08 <__aeabi_d2uiz+0x28>
 8000ae4:	f512 1200 	adds.w	r2, r2, #2097152	@ 0x200000
 8000ae8:	d211      	bcs.n	8000b0e <__aeabi_d2uiz+0x2e>
 8000aea:	d50d      	bpl.n	8000b08 <__aeabi_d2uiz+0x28>
 8000aec:	f46f 7378 	mvn.w	r3, #992	@ 0x3e0
 8000af0:	ebb3 5262 	subs.w	r2, r3, r2, asr #21
 8000af4:	d40e      	bmi.n	8000b14 <__aeabi_d2uiz+0x34>
 8000af6:	ea4f 23c1 	mov.w	r3, r1, lsl #11
 8000afa:	f043 4300 	orr.w	r3, r3, #2147483648	@ 0x80000000
 8000afe:	ea43 5350 	orr.w	r3, r3, r0, lsr #21
 8000b02:	fa23 f002 	lsr.w	r0, r3, r2
 8000b06:	4770      	bx	lr
 8000b08:	f04f 0000 	mov.w	r0, #0
 8000b0c:	4770      	bx	lr
 8000b0e:	ea50 3001 	orrs.w	r0, r0, r1, lsl #12
 8000b12:	d102      	bne.n	8000b1a <__aeabi_d2uiz+0x3a>
 8000b14:	f04f 30ff 	mov.w	r0, #4294967295
 8000b18:	4770      	bx	lr
 8000b1a:	f04f 0000 	mov.w	r0, #0
 8000b1e:	4770      	bx	lr

08000b20 <__aeabi_frsub>:
 8000b20:	f080 4000 	eor.w	r0, r0, #2147483648	@ 0x80000000
 8000b24:	e002      	b.n	8000b2c <__addsf3>
 8000b26:	bf00      	nop

08000b28 <__aeabi_fsub>:
 8000b28:	f081 4100 	eor.w	r1, r1, #2147483648	@ 0x80000000

08000b2c <__addsf3>:
 8000b2c:	0042      	lsls	r2, r0, #1
 8000b2e:	bf1f      	itttt	ne
 8000b30:	ea5f 0341 	movsne.w	r3, r1, lsl #1
 8000b34:	ea92 0f03 	teqne	r2, r3
 8000b38:	ea7f 6c22 	mvnsne.w	ip, r2, asr #24
 8000b3c:	ea7f 6c23 	mvnsne.w	ip, r3, asr #24
 8000b40:	d06a      	beq.n	8000c18 <__addsf3+0xec>
 8000b42:	ea4f 6212 	mov.w	r2, r2, lsr #24
 8000b46:	ebd2 6313 	rsbs	r3, r2, r3, lsr #24
 8000b4a:	bfc1      	itttt	gt
 8000b4c:	18d2      	addgt	r2, r2, r3
 8000b4e:	4041      	eorgt	r1, r0
 8000b50:	4048      	eorgt	r0, r1
 8000b52:	4041      	eorgt	r1, r0
 8000b54:	bfb8      	it	lt
 8000b56:	425b      	neglt	r3, r3
 8000b58:	2b19      	cmp	r3, #25
 8000b5a:	bf88      	it	hi
 8000b5c:	4770      	bxhi	lr
 8000b5e:	f010 4f00 	tst.w	r0, #2147483648	@ 0x80000000
 8000b62:	f440 0000 	orr.w	r0, r0, #8388608	@ 0x800000
 8000b66:	f020 407f 	bic.w	r0, r0, #4278190080	@ 0xff000000
 8000b6a:	bf18      	it	ne
 8000b6c:	4240      	negne	r0, r0
 8000b6e:	f011 4f00 	tst.w	r1, #2147483648	@ 0x80000000
 8000b72:	f441 0100 	orr.w	r1, r1, #8388608	@ 0x800000
 8000b76:	f021 417f 	bic.w	r1, r1, #4278190080	@ 0xff000000
 8000b7a:	bf18      	it	ne
 8000b7c:	4249      	negne	r1, r1
 8000b7e:	ea92 0f03 	teq	r2, r3
 8000b82:	d03f      	beq.n	8000c04 <__addsf3+0xd8>
 8000b84:	f1a2 0201 	sub.w	r2, r2, #1
 8000b88:	fa41 fc03 	asr.w	ip, r1, r3
 8000b8c:	eb10 000c 	adds.w	r0, r0, ip
 8000b90:	f1c3 0320 	rsb	r3, r3, #32
 8000b94:	fa01 f103 	lsl.w	r1, r1, r3
 8000b98:	f000 4300 	and.w	r3, r0, #2147483648	@ 0x80000000
 8000b9c:	d502      	bpl.n	8000ba4 <__addsf3+0x78>
 8000b9e:	4249      	negs	r1, r1
 8000ba0:	eb60 0040 	sbc.w	r0, r0, r0, lsl #1
 8000ba4:	f5b0 0f00 	cmp.w	r0, #8388608	@ 0x800000
 8000ba8:	d313      	bcc.n	8000bd2 <__addsf3+0xa6>
 8000baa:	f1b0 7f80 	cmp.w	r0, #16777216	@ 0x1000000
 8000bae:	d306      	bcc.n	8000bbe <__addsf3+0x92>
 8000bb0:	0840      	lsrs	r0, r0, #1
 8000bb2:	ea4f 0131 	mov.w	r1, r1, rrx
 8000bb6:	f102 0201 	add.w	r2, r2, #1
 8000bba:	2afe      	cmp	r2, #254	@ 0xfe
 8000bbc:	d251      	bcs.n	8000c62 <__addsf3+0x136>
 8000bbe:	f1b1 4f00 	cmp.w	r1, #2147483648	@ 0x80000000
 8000bc2:	eb40 50c2 	adc.w	r0, r0, r2, lsl #23
 8000bc6:	bf08      	it	eq
 8000bc8:	f020 0001 	biceq.w	r0, r0, #1
 8000bcc:	ea40 0003 	orr.w	r0, r0, r3
 8000bd0:	4770      	bx	lr
 8000bd2:	0049      	lsls	r1, r1, #1
 8000bd4:	eb40 0000 	adc.w	r0, r0, r0
 8000bd8:	3a01      	subs	r2, #1
 8000bda:	bf28      	it	cs
 8000bdc:	f5b0 0f00 	cmpcs.w	r0, #8388608	@ 0x800000
 8000be0:	d2ed      	bcs.n	8000bbe <__addsf3+0x92>
 8000be2:	fab0 fc80 	clz	ip, r0
 8000be6:	f1ac 0c08 	sub.w	ip, ip, #8
 8000bea:	ebb2 020c 	subs.w	r2, r2, ip
 8000bee:	fa00 f00c 	lsl.w	r0, r0, ip
 8000bf2:	bfaa      	itet	ge
 8000bf4:	eb00 50c2 	addge.w	r0, r0, r2, lsl #23
 8000bf8:	4252      	neglt	r2, r2
 8000bfa:	4318      	orrge	r0, r3
 8000bfc:	bfbc      	itt	lt
 8000bfe:	40d0      	lsrlt	r0, r2
 8000c00:	4318      	orrlt	r0, r3
 8000c02:	4770      	bx	lr
 8000c04:	f092 0f00 	teq	r2, #0
 8000c08:	f481 0100 	eor.w	r1, r1, #8388608	@ 0x800000
 8000c0c:	bf06      	itte	eq
 8000c0e:	f480 0000 	eoreq.w	r0, r0, #8388608	@ 0x800000
 8000c12:	3201      	addeq	r2, #1
 8000c14:	3b01      	subne	r3, #1
 8000c16:	e7b5      	b.n	8000b84 <__addsf3+0x58>
 8000c18:	ea4f 0341 	mov.w	r3, r1, lsl #1
 8000c1c:	ea7f 6c22 	mvns.w	ip, r2, asr #24
 8000c20:	bf18      	it	ne
 8000c22:	ea7f 6c23 	mvnsne.w	ip, r3, asr #24
 8000c26:	d021      	beq.n	8000c6c <__addsf3+0x140>
 8000c28:	ea92 0f03 	teq	r2, r3
 8000c2c:	d004      	beq.n	8000c38 <__addsf3+0x10c>
 8000c2e:	f092 0f00 	teq	r2, #0
 8000c32:	bf08      	it	eq
 8000c34:	4608      	moveq	r0, r1
 8000c36:	4770      	bx	lr
 8000c38:	ea90 0f01 	teq	r0, r1
 8000c3c:	bf1c      	itt	ne
 8000c3e:	2000      	movne	r0, #0
 8000c40:	4770      	bxne	lr
 8000c42:	f012 4f7f 	tst.w	r2, #4278190080	@ 0xff000000
 8000c46:	d104      	bne.n	8000c52 <__addsf3+0x126>
 8000c48:	0040      	lsls	r0, r0, #1
 8000c4a:	bf28      	it	cs
 8000c4c:	f040 4000 	orrcs.w	r0, r0, #2147483648	@ 0x80000000
 8000c50:	4770      	bx	lr
 8000c52:	f112 7200 	adds.w	r2, r2, #33554432	@ 0x2000000
 8000c56:	bf3c      	itt	cc
 8000c58:	f500 0000 	addcc.w	r0, r0, #8388608	@ 0x800000
 8000c5c:	4770      	bxcc	lr
 8000c5e:	f000 4300 	and.w	r3, r0, #2147483648	@ 0x80000000
 8000c62:	f043 40fe 	orr.w	r0, r3, #2130706432	@ 0x7f000000
 8000c66:	f440 0000 	orr.w	r0, r0, #8388608	@ 0x800000
 8000c6a:	4770      	bx	lr
 8000c6c:	ea7f 6222 	mvns.w	r2, r2, asr #24
 8000c70:	bf16      	itet	ne
 8000c72:	4608      	movne	r0, r1
 8000c74:	ea7f 6323 	mvnseq.w	r3, r3, asr #24
 8000c78:	4601      	movne	r1, r0
 8000c7a:	0242      	lsls	r2, r0, #9
 8000c7c:	bf06      	itte	eq
 8000c7e:	ea5f 2341 	movseq.w	r3, r1, lsl #9
 8000c82:	ea90 0f01 	teqeq	r0, r1
 8000c86:	f440 0080 	orrne.w	r0, r0, #4194304	@ 0x400000
 8000c8a:	4770      	bx	lr

08000c8c <__aeabi_ui2f>:
 8000c8c:	f04f 0300 	mov.w	r3, #0
 8000c90:	e004      	b.n	8000c9c <__aeabi_i2f+0x8>
 8000c92:	bf00      	nop

08000c94 <__aeabi_i2f>:
 8000c94:	f010 4300 	ands.w	r3, r0, #2147483648	@ 0x80000000
 8000c98:	bf48      	it	mi
 8000c9a:	4240      	negmi	r0, r0
 8000c9c:	ea5f 0c00 	movs.w	ip, r0
 8000ca0:	bf08      	it	eq
 8000ca2:	4770      	bxeq	lr
 8000ca4:	f043 4396 	orr.w	r3, r3, #1258291200	@ 0x4b000000
 8000ca8:	4601      	mov	r1, r0
 8000caa:	f04f 0000 	mov.w	r0, #0
 8000cae:	e01c      	b.n	8000cea <__aeabi_l2f+0x2a>

08000cb0 <__aeabi_ul2f>:
 8000cb0:	ea50 0201 	orrs.w	r2, r0, r1
 8000cb4:	bf08      	it	eq
 8000cb6:	4770      	bxeq	lr
 8000cb8:	f04f 0300 	mov.w	r3, #0
 8000cbc:	e00a      	b.n	8000cd4 <__aeabi_l2f+0x14>
 8000cbe:	bf00      	nop

08000cc0 <__aeabi_l2f>:
 8000cc0:	ea50 0201 	orrs.w	r2, r0, r1
 8000cc4:	bf08      	it	eq
 8000cc6:	4770      	bxeq	lr
 8000cc8:	f011 4300 	ands.w	r3, r1, #2147483648	@ 0x80000000
 8000ccc:	d502      	bpl.n	8000cd4 <__aeabi_l2f+0x14>
 8000cce:	4240      	negs	r0, r0
 8000cd0:	eb61 0141 	sbc.w	r1, r1, r1, lsl #1
 8000cd4:	ea5f 0c01 	movs.w	ip, r1
 8000cd8:	bf02      	ittt	eq
 8000cda:	4684      	moveq	ip, r0
 8000cdc:	4601      	moveq	r1, r0
 8000cde:	2000      	moveq	r0, #0
 8000ce0:	f043 43b6 	orr.w	r3, r3, #1526726656	@ 0x5b000000
 8000ce4:	bf08      	it	eq
 8000ce6:	f1a3 5380 	subeq.w	r3, r3, #268435456	@ 0x10000000
 8000cea:	f5a3 0300 	sub.w	r3, r3, #8388608	@ 0x800000
 8000cee:	fabc f28c 	clz	r2, ip
 8000cf2:	3a08      	subs	r2, #8
 8000cf4:	eba3 53c2 	sub.w	r3, r3, r2, lsl #23
 8000cf8:	db10      	blt.n	8000d1c <__aeabi_l2f+0x5c>
 8000cfa:	fa01 fc02 	lsl.w	ip, r1, r2
 8000cfe:	4463      	add	r3, ip
 8000d00:	fa00 fc02 	lsl.w	ip, r0, r2
 8000d04:	f1c2 0220 	rsb	r2, r2, #32
 8000d08:	f1bc 4f00 	cmp.w	ip, #2147483648	@ 0x80000000
 8000d0c:	fa20 f202 	lsr.w	r2, r0, r2
 8000d10:	eb43 0002 	adc.w	r0, r3, r2
 8000d14:	bf08      	it	eq
 8000d16:	f020 0001 	biceq.w	r0, r0, #1
 8000d1a:	4770      	bx	lr
 8000d1c:	f102 0220 	add.w	r2, r2, #32
 8000d20:	fa01 fc02 	lsl.w	ip, r1, r2
 8000d24:	f1c2 0220 	rsb	r2, r2, #32
 8000d28:	ea50 004c 	orrs.w	r0, r0, ip, lsl #1
 8000d2c:	fa21 f202 	lsr.w	r2, r1, r2
 8000d30:	eb43 0002 	adc.w	r0, r3, r2
 8000d34:	bf08      	it	eq
 8000d36:	ea20 70dc 	biceq.w	r0, r0, ip, lsr #31
 8000d3a:	4770      	bx	lr

08000d3c <__aeabi_fmul>:
 8000d3c:	f04f 0cff 	mov.w	ip, #255	@ 0xff
 8000d40:	ea1c 52d0 	ands.w	r2, ip, r0, lsr #23
 8000d44:	bf1e      	ittt	ne
 8000d46:	ea1c 53d1 	andsne.w	r3, ip, r1, lsr #23
 8000d4a:	ea92 0f0c 	teqne	r2, ip
 8000d4e:	ea93 0f0c 	teqne	r3, ip
 8000d52:	d06f      	beq.n	8000e34 <__aeabi_fmul+0xf8>
 8000d54:	441a      	add	r2, r3
 8000d56:	ea80 0c01 	eor.w	ip, r0, r1
 8000d5a:	0240      	lsls	r0, r0, #9
 8000d5c:	bf18      	it	ne
 8000d5e:	ea5f 2141 	movsne.w	r1, r1, lsl #9
 8000d62:	d01e      	beq.n	8000da2 <__aeabi_fmul+0x66>
 8000d64:	f04f 6300 	mov.w	r3, #134217728	@ 0x8000000
 8000d68:	ea43 1050 	orr.w	r0, r3, r0, lsr #5
 8000d6c:	ea43 1151 	orr.w	r1, r3, r1, lsr #5
 8000d70:	fba0 3101 	umull	r3, r1, r0, r1
 8000d74:	f00c 4000 	and.w	r0, ip, #2147483648	@ 0x80000000
 8000d78:	f5b1 0f00 	cmp.w	r1, #8388608	@ 0x800000
 8000d7c:	bf3e      	ittt	cc
 8000d7e:	0049      	lslcc	r1, r1, #1
 8000d80:	ea41 71d3 	orrcc.w	r1, r1, r3, lsr #31
 8000d84:	005b      	lslcc	r3, r3, #1
 8000d86:	ea40 0001 	orr.w	r0, r0, r1
 8000d8a:	f162 027f 	sbc.w	r2, r2, #127	@ 0x7f
 8000d8e:	2afd      	cmp	r2, #253	@ 0xfd
 8000d90:	d81d      	bhi.n	8000dce <__aeabi_fmul+0x92>
 8000d92:	f1b3 4f00 	cmp.w	r3, #2147483648	@ 0x80000000
 8000d96:	eb40 50c2 	adc.w	r0, r0, r2, lsl #23
 8000d9a:	bf08      	it	eq
 8000d9c:	f020 0001 	biceq.w	r0, r0, #1
 8000da0:	4770      	bx	lr
 8000da2:	f090 0f00 	teq	r0, #0
 8000da6:	f00c 4c00 	and.w	ip, ip, #2147483648	@ 0x80000000
 8000daa:	bf08      	it	eq
 8000dac:	0249      	lsleq	r1, r1, #9
 8000dae:	ea4c 2050 	orr.w	r0, ip, r0, lsr #9
 8000db2:	ea40 2051 	orr.w	r0, r0, r1, lsr #9
 8000db6:	3a7f      	subs	r2, #127	@ 0x7f
 8000db8:	bfc2      	ittt	gt
 8000dba:	f1d2 03ff 	rsbsgt	r3, r2, #255	@ 0xff
 8000dbe:	ea40 50c2 	orrgt.w	r0, r0, r2, lsl #23
 8000dc2:	4770      	bxgt	lr
 8000dc4:	f440 0000 	orr.w	r0, r0, #8388608	@ 0x800000
 8000dc8:	f04f 0300 	mov.w	r3, #0
 8000dcc:	3a01      	subs	r2, #1
 8000dce:	dc5d      	bgt.n	8000e8c <__aeabi_fmul+0x150>
 8000dd0:	f112 0f19 	cmn.w	r2, #25
 8000dd4:	bfdc      	itt	le
 8000dd6:	f000 4000 	andle.w	r0, r0, #2147483648	@ 0x80000000
 8000dda:	4770      	bxle	lr
 8000ddc:	f1c2 0200 	rsb	r2, r2, #0
 8000de0:	0041      	lsls	r1, r0, #1
 8000de2:	fa21 f102 	lsr.w	r1, r1, r2
 8000de6:	f1c2 0220 	rsb	r2, r2, #32
 8000dea:	fa00 fc02 	lsl.w	ip, r0, r2
 8000dee:	ea5f 0031 	movs.w	r0, r1, rrx
 8000df2:	f140 0000 	adc.w	r0, r0, #0
 8000df6:	ea53 034c 	orrs.w	r3, r3, ip, lsl #1
 8000dfa:	bf08      	it	eq
 8000dfc:	ea20 70dc 	biceq.w	r0, r0, ip, lsr #31
 8000e00:	4770      	bx	lr
 8000e02:	f092 0f00 	teq	r2, #0
 8000e06:	f000 4c00 	and.w	ip, r0, #2147483648	@ 0x80000000
 8000e0a:	bf02      	ittt	eq
 8000e0c:	0040      	lsleq	r0, r0, #1
 8000e0e:	f410 0f00 	tsteq.w	r0, #8388608	@ 0x800000
 8000e12:	3a01      	subeq	r2, #1
 8000e14:	d0f9      	beq.n	8000e0a <__aeabi_fmul+0xce>
 8000e16:	ea40 000c 	orr.w	r0, r0, ip
 8000e1a:	f093 0f00 	teq	r3, #0
 8000e1e:	f001 4c00 	and.w	ip, r1, #2147483648	@ 0x80000000
 8000e22:	bf02      	ittt	eq
 8000e24:	0049      	lsleq	r1, r1, #1
 8000e26:	f411 0f00 	tsteq.w	r1, #8388608	@ 0x800000
 8000e2a:	3b01      	subeq	r3, #1
 8000e2c:	d0f9      	beq.n	8000e22 <__aeabi_fmul+0xe6>
 8000e2e:	ea41 010c 	orr.w	r1, r1, ip
 8000e32:	e78f      	b.n	8000d54 <__aeabi_fmul+0x18>
 8000e34:	ea0c 53d1 	and.w	r3, ip, r1, lsr #23
 8000e38:	ea92 0f0c 	teq	r2, ip
 8000e3c:	bf18      	it	ne
 8000e3e:	ea93 0f0c 	teqne	r3, ip
 8000e42:	d00a      	beq.n	8000e5a <__aeabi_fmul+0x11e>
 8000e44:	f030 4c00 	bics.w	ip, r0, #2147483648	@ 0x80000000
 8000e48:	bf18      	it	ne
 8000e4a:	f031 4c00 	bicsne.w	ip, r1, #2147483648	@ 0x80000000
 8000e4e:	d1d8      	bne.n	8000e02 <__aeabi_fmul+0xc6>
 8000e50:	ea80 0001 	eor.w	r0, r0, r1
 8000e54:	f000 4000 	and.w	r0, r0, #2147483648	@ 0x80000000
 8000e58:	4770      	bx	lr
 8000e5a:	f090 0f00 	teq	r0, #0
 8000e5e:	bf17      	itett	ne
 8000e60:	f090 4f00 	teqne	r0, #2147483648	@ 0x80000000
 8000e64:	4608      	moveq	r0, r1
 8000e66:	f091 0f00 	teqne	r1, #0
 8000e6a:	f091 4f00 	teqne	r1, #2147483648	@ 0x80000000
 8000e6e:	d014      	beq.n	8000e9a <__aeabi_fmul+0x15e>
 8000e70:	ea92 0f0c 	teq	r2, ip
 8000e74:	d101      	bne.n	8000e7a <__aeabi_fmul+0x13e>
 8000e76:	0242      	lsls	r2, r0, #9
 8000e78:	d10f      	bne.n	8000e9a <__aeabi_fmul+0x15e>
 8000e7a:	ea93 0f0c 	teq	r3, ip
 8000e7e:	d103      	bne.n	8000e88 <__aeabi_fmul+0x14c>
 8000e80:	024b      	lsls	r3, r1, #9
 8000e82:	bf18      	it	ne
 8000e84:	4608      	movne	r0, r1
 8000e86:	d108      	bne.n	8000e9a <__aeabi_fmul+0x15e>
 8000e88:	ea80 0001 	eor.w	r0, r0, r1
 8000e8c:	f000 4000 	and.w	r0, r0, #2147483648	@ 0x80000000
 8000e90:	f040 40fe 	orr.w	r0, r0, #2130706432	@ 0x7f000000
 8000e94:	f440 0000 	orr.w	r0, r0, #8388608	@ 0x800000
 8000e98:	4770      	bx	lr
 8000e9a:	f040 40fe 	orr.w	r0, r0, #2130706432	@ 0x7f000000
 8000e9e:	f440 0040 	orr.w	r0, r0, #12582912	@ 0xc00000
 8000ea2:	4770      	bx	lr

08000ea4 <__aeabi_fdiv>:
 8000ea4:	f04f 0cff 	mov.w	ip, #255	@ 0xff
 8000ea8:	ea1c 52d0 	ands.w	r2, ip, r0, lsr #23
 8000eac:	bf1e      	ittt	ne
 8000eae:	ea1c 53d1 	andsne.w	r3, ip, r1, lsr #23
 8000eb2:	ea92 0f0c 	teqne	r2, ip
 8000eb6:	ea93 0f0c 	teqne	r3, ip
 8000eba:	d069      	beq.n	8000f90 <__aeabi_fdiv+0xec>
 8000ebc:	eba2 0203 	sub.w	r2, r2, r3
 8000ec0:	ea80 0c01 	eor.w	ip, r0, r1
 8000ec4:	0249      	lsls	r1, r1, #9
 8000ec6:	ea4f 2040 	mov.w	r0, r0, lsl #9
 8000eca:	d037      	beq.n	8000f3c <__aeabi_fdiv+0x98>
 8000ecc:	f04f 5380 	mov.w	r3, #268435456	@ 0x10000000
 8000ed0:	ea43 1111 	orr.w	r1, r3, r1, lsr #4
 8000ed4:	ea43 1310 	orr.w	r3, r3, r0, lsr #4
 8000ed8:	f00c 4000 	and.w	r0, ip, #2147483648	@ 0x80000000
 8000edc:	428b      	cmp	r3, r1
 8000ede:	bf38      	it	cc
 8000ee0:	005b      	lslcc	r3, r3, #1
 8000ee2:	f142 027d 	adc.w	r2, r2, #125	@ 0x7d
 8000ee6:	f44f 0c00 	mov.w	ip, #8388608	@ 0x800000
 8000eea:	428b      	cmp	r3, r1
 8000eec:	bf24      	itt	cs
 8000eee:	1a5b      	subcs	r3, r3, r1
 8000ef0:	ea40 000c 	orrcs.w	r0, r0, ip
 8000ef4:	ebb3 0f51 	cmp.w	r3, r1, lsr #1
 8000ef8:	bf24      	itt	cs
 8000efa:	eba3 0351 	subcs.w	r3, r3, r1, lsr #1
 8000efe:	ea40 005c 	orrcs.w	r0, r0, ip, lsr #1
 8000f02:	ebb3 0f91 	cmp.w	r3, r1, lsr #2
 8000f06:	bf24      	itt	cs
 8000f08:	eba3 0391 	subcs.w	r3, r3, r1, lsr #2
 8000f0c:	ea40 009c 	orrcs.w	r0, r0, ip, lsr #2
 8000f10:	ebb3 0fd1 	cmp.w	r3, r1, lsr #3
 8000f14:	bf24      	itt	cs
 8000f16:	eba3 03d1 	subcs.w	r3, r3, r1, lsr #3
 8000f1a:	ea40 00dc 	orrcs.w	r0, r0, ip, lsr #3
 8000f1e:	011b      	lsls	r3, r3, #4
 8000f20:	bf18      	it	ne
 8000f22:	ea5f 1c1c 	movsne.w	ip, ip, lsr #4
 8000f26:	d1e0      	bne.n	8000eea <__aeabi_fdiv+0x46>
 8000f28:	2afd      	cmp	r2, #253	@ 0xfd
 8000f2a:	f63f af50 	bhi.w	8000dce <__aeabi_fmul+0x92>
 8000f2e:	428b      	cmp	r3, r1
 8000f30:	eb40 50c2 	adc.w	r0, r0, r2, lsl #23
 8000f34:	bf08      	it	eq
 8000f36:	f020 0001 	biceq.w	r0, r0, #1
 8000f3a:	4770      	bx	lr
 8000f3c:	f00c 4c00 	and.w	ip, ip, #2147483648	@ 0x80000000
 8000f40:	ea4c 2050 	orr.w	r0, ip, r0, lsr #9
 8000f44:	327f      	adds	r2, #127	@ 0x7f
 8000f46:	bfc2      	ittt	gt
 8000f48:	f1d2 03ff 	rsbsgt	r3, r2, #255	@ 0xff
 8000f4c:	ea40 50c2 	orrgt.w	r0, r0, r2, lsl #23
 8000f50:	4770      	bxgt	lr
 8000f52:	f440 0000 	orr.w	r0, r0, #8388608	@ 0x800000
 8000f56:	f04f 0300 	mov.w	r3, #0
 8000f5a:	3a01      	subs	r2, #1
 8000f5c:	e737      	b.n	8000dce <__aeabi_fmul+0x92>
 8000f5e:	f092 0f00 	teq	r2, #0
 8000f62:	f000 4c00 	and.w	ip, r0, #2147483648	@ 0x80000000
 8000f66:	bf02      	ittt	eq
 8000f68:	0040      	lsleq	r0, r0, #1
 8000f6a:	f410 0f00 	tsteq.w	r0, #8388608	@ 0x800000
 8000f6e:	3a01      	subeq	r2, #1
 8000f70:	d0f9      	beq.n	8000f66 <__aeabi_fdiv+0xc2>
 8000f72:	ea40 000c 	orr.w	r0, r0, ip
 8000f76:	f093 0f00 	teq	r3, #0
 8000f7a:	f001 4c00 	and.w	ip, r1, #2147483648	@ 0x80000000
 8000f7e:	bf02      	ittt	eq
 8000f80:	0049      	lsleq	r1, r1, #1
 8000f82:	f411 0f00 	tsteq.w	r1, #8388608	@ 0x800000
 8000f86:	3b01      	subeq	r3, #1
 8000f88:	d0f9      	beq.n	8000f7e <__aeabi_fdiv+0xda>
 8000f8a:	ea41 010c 	orr.w	r1, r1, ip
 8000f8e:	e795      	b.n	8000ebc <__aeabi_fdiv+0x18>
 8000f90:	ea0c 53d1 	and.w	r3, ip, r1, lsr #23
 8000f94:	ea92 0f0c 	teq	r2, ip
 8000f98:	d108      	bne.n	8000fac <__aeabi_fdiv+0x108>
 8000f9a:	0242      	lsls	r2, r0, #9
 8000f9c:	f47f af7d 	bne.w	8000e9a <__aeabi_fmul+0x15e>
 8000fa0:	ea93 0f0c 	teq	r3, ip
 8000fa4:	f47f af70 	bne.w	8000e88 <__aeabi_fmul+0x14c>
 8000fa8:	4608      	mov	r0, r1
 8000faa:	e776      	b.n	8000e9a <__aeabi_fmul+0x15e>
 8000fac:	ea93 0f0c 	teq	r3, ip
 8000fb0:	d104      	bne.n	8000fbc <__aeabi_fdiv+0x118>
 8000fb2:	024b      	lsls	r3, r1, #9
 8000fb4:	f43f af4c 	beq.w	8000e50 <__aeabi_fmul+0x114>
 8000fb8:	4608      	mov	r0, r1
 8000fba:	e76e      	b.n	8000e9a <__aeabi_fmul+0x15e>
 8000fbc:	f030 4c00 	bics.w	ip, r0, #2147483648	@ 0x80000000
 8000fc0:	bf18      	it	ne
 8000fc2:	f031 4c00 	bicsne.w	ip, r1, #2147483648	@ 0x80000000
 8000fc6:	d1ca      	bne.n	8000f5e <__aeabi_fdiv+0xba>
 8000fc8:	f030 4200 	bics.w	r2, r0, #2147483648	@ 0x80000000
 8000fcc:	f47f af5c 	bne.w	8000e88 <__aeabi_fmul+0x14c>
 8000fd0:	f031 4300 	bics.w	r3, r1, #2147483648	@ 0x80000000
 8000fd4:	f47f af3c 	bne.w	8000e50 <__aeabi_fmul+0x114>
 8000fd8:	e75f      	b.n	8000e9a <__aeabi_fmul+0x15e>
 8000fda:	bf00      	nop

08000fdc <__aeabi_f2uiz>:
 8000fdc:	0042      	lsls	r2, r0, #1
 8000fde:	d20e      	bcs.n	8000ffe <__aeabi_f2uiz+0x22>
 8000fe0:	f1b2 4ffe 	cmp.w	r2, #2130706432	@ 0x7f000000
 8000fe4:	d30b      	bcc.n	8000ffe <__aeabi_f2uiz+0x22>
 8000fe6:	f04f 039e 	mov.w	r3, #158	@ 0x9e
 8000fea:	ebb3 6212 	subs.w	r2, r3, r2, lsr #24
 8000fee:	d409      	bmi.n	8001004 <__aeabi_f2uiz+0x28>
 8000ff0:	ea4f 2300 	mov.w	r3, r0, lsl #8
 8000ff4:	f043 4300 	orr.w	r3, r3, #2147483648	@ 0x80000000
 8000ff8:	fa23 f002 	lsr.w	r0, r3, r2
 8000ffc:	4770      	bx	lr
 8000ffe:	f04f 0000 	mov.w	r0, #0
 8001002:	4770      	bx	lr
 8001004:	f112 0f61 	cmn.w	r2, #97	@ 0x61
 8001008:	d101      	bne.n	800100e <__aeabi_f2uiz+0x32>
 800100a:	0242      	lsls	r2, r0, #9
 800100c:	d102      	bne.n	8001014 <__aeabi_f2uiz+0x38>
 800100e:	f04f 30ff 	mov.w	r0, #4294967295
 8001012:	4770      	bx	lr
 8001014:	f04f 0000 	mov.w	r0, #0
 8001018:	4770      	bx	lr
 800101a:	bf00      	nop

0800101c <Motor_Set_PWM_Frequency>:
 800101c:	4b06      	ldr	r3, [pc, #24]	@ (8001038 <Motor_Set_PWM_Frequency+0x1c>)
 800101e:	6018      	str	r0, [r3, #0]
 8001020:	4b06      	ldr	r3, [pc, #24]	@ (800103c <Motor_Set_PWM_Frequency+0x20>)
 8001022:	681a      	ldr	r2, [r3, #0]
 8001024:	6ad3      	ldr	r3, [r2, #44]	@ 0x2c
 8001026:	fb03 0000 	mla	r0, r3, r0, r0
 800102a:	4b05      	ldr	r3, [pc, #20]	@ (8001040 <Motor_Set_PWM_Frequency+0x24>)
 800102c:	fbb3 f3f0 	udiv	r3, r3, r0
 8001030:	3b01      	subs	r3, #1
 8001032:	2000      	movs	r0, #0
 8001034:	6293      	str	r3, [r2, #40]	@ 0x28
 8001036:	4770      	bx	lr
 8001038:	2000008c 	.word	0x2000008c
 800103c:	200001a8 	.word	0x200001a8
 8001040:	01e84800 	.word	0x01e84800

08001044 <Motor_Set_PWM_Duty>:
 8001044:	b5f8      	push	{r3, r4, r5, r6, r7, lr}
 8001046:	4605      	mov	r5, r0
 8001048:	f995 3000 	ldrsb.w	r3, [r5]
 800104c:	4608      	mov	r0, r1
 800104e:	2b01      	cmp	r3, #1
 8001050:	d01b      	beq.n	800108a <Motor_Set_PWM_Duty+0x46>
 8001052:	3301      	adds	r3, #1
 8001054:	d11b      	bne.n	800108e <Motor_Set_PWM_Duty+0x4a>
 8001056:	43cb      	mvns	r3, r1
 8001058:	b2db      	uxtb	r3, r3
 800105a:	706b      	strb	r3, [r5, #1]
 800105c:	4b11      	ldr	r3, [pc, #68]	@ (80010a4 <Motor_Set_PWM_Duty+0x60>)
 800105e:	681c      	ldr	r4, [r3, #0]
 8001060:	f7ff fe18 	bl	8000c94 <__aeabi_i2f>
 8001064:	4910      	ldr	r1, [pc, #64]	@ (80010a8 <Motor_Set_PWM_Duty+0x64>)
 8001066:	f7ff ff1d 	bl	8000ea4 <__aeabi_fdiv>
 800106a:	6ae7      	ldr	r7, [r4, #44]	@ 0x2c
 800106c:	4606      	mov	r6, r0
 800106e:	4638      	mov	r0, r7
 8001070:	f7ff fe0c 	bl	8000c8c <__aeabi_ui2f>
 8001074:	4601      	mov	r1, r0
 8001076:	4630      	mov	r0, r6
 8001078:	f7ff fe60 	bl	8000d3c <__aeabi_fmul>
 800107c:	f7ff ffae 	bl	8000fdc <__aeabi_f2uiz>
 8001080:	686b      	ldr	r3, [r5, #4]
 8001082:	b933      	cbnz	r3, 8001092 <Motor_Set_PWM_Duty+0x4e>
 8001084:	6360      	str	r0, [r4, #52]	@ 0x34
 8001086:	2000      	movs	r0, #0
 8001088:	bdf8      	pop	{r3, r4, r5, r6, r7, pc}
 800108a:	460b      	mov	r3, r1
 800108c:	e7e5      	b.n	800105a <Motor_Set_PWM_Duty+0x16>
 800108e:	2300      	movs	r3, #0
 8001090:	e7e3      	b.n	800105a <Motor_Set_PWM_Duty+0x16>
 8001092:	2b04      	cmp	r3, #4
 8001094:	d101      	bne.n	800109a <Motor_Set_PWM_Duty+0x56>
 8001096:	63a0      	str	r0, [r4, #56]	@ 0x38
 8001098:	e7f5      	b.n	8001086 <Motor_Set_PWM_Duty+0x42>
 800109a:	2b08      	cmp	r3, #8
 800109c:	bf0c      	ite	eq
 800109e:	63e0      	streq	r0, [r4, #60]	@ 0x3c
 80010a0:	6420      	strne	r0, [r4, #64]	@ 0x40
 80010a2:	e7f0      	b.n	8001086 <Motor_Set_PWM_Duty+0x42>
 80010a4:	200001a8 	.word	0x200001a8
 80010a8:	437f0000 	.word	0x437f0000

080010ac <Motor_Init>:
 80010ac:	b530      	push	{r4, r5, lr}
 80010ae:	b085      	sub	sp, #20
 80010b0:	ac04      	add	r4, sp, #16
 80010b2:	e904 000f 	stmdb	r4, {r0, r1, r2, r3}
 80010b6:	2110      	movs	r1, #16
 80010b8:	2001      	movs	r0, #1
 80010ba:	f003 f9e9 	bl	8004490 <calloc>
 80010be:	2301      	movs	r3, #1
 80010c0:	4604      	mov	r4, r0
 80010c2:	8003      	strh	r3, [r0, #0]
 80010c4:	9b00      	ldr	r3, [sp, #0]
 80010c6:	4d09      	ldr	r5, [pc, #36]	@ (80010ec <Motor_Init+0x40>)
 80010c8:	6043      	str	r3, [r0, #4]
 80010ca:	9b01      	ldr	r3, [sp, #4]
 80010cc:	2100      	movs	r1, #0
 80010ce:	6083      	str	r3, [r0, #8]
 80010d0:	f8bd 3008 	ldrh.w	r3, [sp, #8]
 80010d4:	8183      	strh	r3, [r0, #12]
 80010d6:	9b03      	ldr	r3, [sp, #12]
 80010d8:	602b      	str	r3, [r5, #0]
 80010da:	f7ff ffb3 	bl	8001044 <Motor_Set_PWM_Duty>
 80010de:	6828      	ldr	r0, [r5, #0]
 80010e0:	f7ff ff9c 	bl	800101c <Motor_Set_PWM_Frequency>
 80010e4:	4620      	mov	r0, r4
 80010e6:	b005      	add	sp, #20
 80010e8:	bd30      	pop	{r4, r5, pc}
 80010ea:	bf00      	nop
 80010ec:	2000008c 	.word	0x2000008c

080010f0 <Motor_SetDirection>:
 80010f0:	2901      	cmp	r1, #1
 80010f2:	b508      	push	{r3, lr}
 80010f4:	7001      	strb	r1, [r0, #0]
 80010f6:	d106      	bne.n	8001106 <Motor_SetDirection+0x16>
 80010f8:	2200      	movs	r2, #0
 80010fa:	8981      	ldrh	r1, [r0, #12]
 80010fc:	6880      	ldr	r0, [r0, #8]
 80010fe:	f001 fe6f 	bl	8002de0 <HAL_GPIO_WritePin>
 8001102:	2000      	movs	r0, #0
 8001104:	bd08      	pop	{r3, pc}
 8001106:	3101      	adds	r1, #1
 8001108:	d1fb      	bne.n	8001102 <Motor_SetDirection+0x12>
 800110a:	2201      	movs	r2, #1
 800110c:	e7f5      	b.n	80010fa <Motor_SetDirection+0xa>
	...

08001110 <Motor_Start>:
 8001110:	b510      	push	{r4, lr}
 8001112:	4604      	mov	r4, r0
 8001114:	f990 1000 	ldrsb.w	r1, [r0]
 8001118:	f7ff ffea 	bl	80010f0 <Motor_SetDirection>
 800111c:	6861      	ldr	r1, [r4, #4]
 800111e:	4804      	ldr	r0, [pc, #16]	@ (8001130 <Motor_Start+0x20>)
 8001120:	f002 fd48 	bl	8003bb4 <HAL_TIM_PWM_Start>
 8001124:	3800      	subs	r0, #0
 8001126:	bf18      	it	ne
 8001128:	2001      	movne	r0, #1
 800112a:	4240      	negs	r0, r0
 800112c:	bd10      	pop	{r4, pc}
 800112e:	bf00      	nop
 8001130:	200001a8 	.word	0x200001a8

08001134 <Encoder_Init>:
 8001134:	b507      	push	{r0, r1, r2, lr}
 8001136:	ab02      	add	r3, sp, #8
 8001138:	e903 0003 	stmdb	r3, {r0, r1}
 800113c:	210c      	movs	r1, #12
 800113e:	2001      	movs	r0, #1
 8001140:	f003 f9a6 	bl	8004490 <calloc>
 8001144:	9a00      	ldr	r2, [sp, #0]
 8001146:	6042      	str	r2, [r0, #4]
 8001148:	f8bd 2004 	ldrh.w	r2, [sp, #4]
 800114c:	6082      	str	r2, [r0, #8]
 800114e:	b003      	add	sp, #12
 8001150:	f85d fb04 	ldr.w	pc, [sp], #4

08001154 <Encoder_Start>:
 8001154:	6881      	ldr	r1, [r0, #8]
 8001156:	b508      	push	{r3, lr}
 8001158:	4803      	ldr	r0, [pc, #12]	@ (8001168 <Encoder_Start+0x14>)
 800115a:	f002 fd2d 	bl	8003bb8 <HAL_TIM_IC_Start_IT>
 800115e:	3800      	subs	r0, #0
 8001160:	bf18      	it	ne
 8001162:	2001      	movne	r0, #1
 8001164:	4240      	negs	r0, r0
 8001166:	bd08      	pop	{r3, pc}
 8001168:	20000160 	.word	0x20000160

0800116c <SystemClock_Config>:
 800116c:	b530      	push	{r4, r5, lr}
 800116e:	b091      	sub	sp, #68	@ 0x44
 8001170:	2220      	movs	r2, #32
 8001172:	2100      	movs	r1, #0
 8001174:	a807      	add	r0, sp, #28
 8001176:	f003 faa5 	bl	80046c4 <memset>
 800117a:	2214      	movs	r2, #20
 800117c:	2100      	movs	r1, #0
 800117e:	a801      	add	r0, sp, #4
 8001180:	f003 faa0 	bl	80046c4 <memset>
 8001184:	2501      	movs	r5, #1
 8001186:	2310      	movs	r3, #16
 8001188:	2402      	movs	r4, #2
 800118a:	e9cd 530a 	strd	r5, r3, [sp, #40]	@ 0x28
 800118e:	f44f 13c0 	mov.w	r3, #1572864	@ 0x180000
 8001192:	a806      	add	r0, sp, #24
 8001194:	9406      	str	r4, [sp, #24]
 8001196:	940d      	str	r4, [sp, #52]	@ 0x34
 8001198:	930f      	str	r3, [sp, #60]	@ 0x3c
 800119a:	f001 fe27 	bl	8002dec <HAL_RCC_OscConfig>
 800119e:	b108      	cbz	r0, 80011a4 <SystemClock_Config+0x38>
 80011a0:	b672      	cpsid	i
 80011a2:	e7fe      	b.n	80011a2 <SystemClock_Config+0x36>
 80011a4:	230f      	movs	r3, #15
 80011a6:	e9cd 0003 	strd	r0, r0, [sp, #12]
 80011aa:	9005      	str	r0, [sp, #20]
 80011ac:	4629      	mov	r1, r5
 80011ae:	a801      	add	r0, sp, #4
 80011b0:	e9cd 3401 	strd	r3, r4, [sp, #4]
 80011b4:	f001 ffdc 	bl	8003170 <HAL_RCC_ClockConfig>
 80011b8:	b108      	cbz	r0, 80011be <SystemClock_Config+0x52>
 80011ba:	b672      	cpsid	i
 80011bc:	e7fe      	b.n	80011bc <SystemClock_Config+0x50>
 80011be:	b011      	add	sp, #68	@ 0x44
 80011c0:	bd30      	pop	{r4, r5, pc}
	...

080011c4 <main>:
 80011c4:	b580      	push	{r7, lr}
 80011c6:	4c8d      	ldr	r4, [pc, #564]	@ (80013fc <main+0x238>)
 80011c8:	b09a      	sub	sp, #104	@ 0x68
 80011ca:	f001 fa1d 	bl	8002608 <HAL_Init>
 80011ce:	f7ff ffcd 	bl	800116c <SystemClock_Config>
 80011d2:	2210      	movs	r2, #16
 80011d4:	2100      	movs	r1, #0
 80011d6:	a812      	add	r0, sp, #72	@ 0x48
 80011d8:	f003 fa74 	bl	80046c4 <memset>
 80011dc:	69a3      	ldr	r3, [r4, #24]
 80011de:	2200      	movs	r2, #0
 80011e0:	f043 0310 	orr.w	r3, r3, #16
 80011e4:	61a3      	str	r3, [r4, #24]
 80011e6:	69a3      	ldr	r3, [r4, #24]
 80011e8:	f242 0108 	movw	r1, #8200	@ 0x2008
 80011ec:	f003 0310 	and.w	r3, r3, #16
 80011f0:	9301      	str	r3, [sp, #4]
 80011f2:	9b01      	ldr	r3, [sp, #4]
 80011f4:	69a3      	ldr	r3, [r4, #24]
 80011f6:	4882      	ldr	r0, [pc, #520]	@ (8001400 <main+0x23c>)
 80011f8:	f043 0320 	orr.w	r3, r3, #32
 80011fc:	61a3      	str	r3, [r4, #24]
 80011fe:	69a3      	ldr	r3, [r4, #24]
 8001200:	2500      	movs	r5, #0
 8001202:	f003 0320 	and.w	r3, r3, #32
 8001206:	9302      	str	r3, [sp, #8]
 8001208:	9b02      	ldr	r3, [sp, #8]
 800120a:	69a3      	ldr	r3, [r4, #24]
 800120c:	2701      	movs	r7, #1
 800120e:	f043 0304 	orr.w	r3, r3, #4
 8001212:	61a3      	str	r3, [r4, #24]
 8001214:	69a3      	ldr	r3, [r4, #24]
 8001216:	f44f 5600 	mov.w	r6, #8192	@ 0x2000
 800121a:	f003 0304 	and.w	r3, r3, #4
 800121e:	9303      	str	r3, [sp, #12]
 8001220:	9b03      	ldr	r3, [sp, #12]
 8001222:	69a3      	ldr	r3, [r4, #24]
 8001224:	f043 0308 	orr.w	r3, r3, #8
 8001228:	61a3      	str	r3, [r4, #24]
 800122a:	69a3      	ldr	r3, [r4, #24]
 800122c:	f003 0308 	and.w	r3, r3, #8
 8001230:	9304      	str	r3, [sp, #16]
 8001232:	9b04      	ldr	r3, [sp, #16]
 8001234:	f001 fdd4 	bl	8002de0 <HAL_GPIO_WritePin>
 8001238:	2302      	movs	r3, #2
 800123a:	4871      	ldr	r0, [pc, #452]	@ (8001400 <main+0x23c>)
 800123c:	a912      	add	r1, sp, #72	@ 0x48
 800123e:	e9cd 5314 	strd	r5, r3, [sp, #80]	@ 0x50
 8001242:	e9cd 6712 	strd	r6, r7, [sp, #72]	@ 0x48
 8001246:	f001 fce5 	bl	8002c14 <HAL_GPIO_Init>
 800124a:	2308      	movs	r3, #8
 800124c:	486c      	ldr	r0, [pc, #432]	@ (8001400 <main+0x23c>)
 800124e:	a912      	add	r1, sp, #72	@ 0x48
 8001250:	e9cd 3712 	strd	r3, r7, [sp, #72]	@ 0x48
 8001254:	e9cd 5714 	strd	r5, r7, [sp, #80]	@ 0x50
 8001258:	f001 fcdc 	bl	8002c14 <HAL_GPIO_Init>
 800125c:	6963      	ldr	r3, [r4, #20]
 800125e:	462a      	mov	r2, r5
 8001260:	433b      	orrs	r3, r7
 8001262:	6163      	str	r3, [r4, #20]
 8001264:	6963      	ldr	r3, [r4, #20]
 8001266:	4629      	mov	r1, r5
 8001268:	403b      	ands	r3, r7
 800126a:	200e      	movs	r0, #14
 800126c:	9300      	str	r3, [sp, #0]
 800126e:	9b00      	ldr	r3, [sp, #0]
 8001270:	f001 fa00 	bl	8002674 <HAL_NVIC_SetPriority>
 8001274:	200e      	movs	r0, #14
 8001276:	f001 fa2d 	bl	80026d4 <HAL_NVIC_EnableIRQ>
 800127a:	462a      	mov	r2, r5
 800127c:	4629      	mov	r1, r5
 800127e:	200f      	movs	r0, #15
 8001280:	f001 f9f8 	bl	8002674 <HAL_NVIC_SetPriority>
 8001284:	200f      	movs	r0, #15
 8001286:	f001 fa25 	bl	80026d4 <HAL_NVIC_EnableIRQ>
 800128a:	f44f 4361 	mov.w	r3, #57600	@ 0xe100
 800128e:	485d      	ldr	r0, [pc, #372]	@ (8001404 <main+0x240>)
 8001290:	495d      	ldr	r1, [pc, #372]	@ (8001408 <main+0x244>)
 8001292:	e9c0 5502 	strd	r5, r5, [r0, #8]
 8001296:	e9c0 1300 	strd	r1, r3, [r0]
 800129a:	230c      	movs	r3, #12
 800129c:	6105      	str	r5, [r0, #16]
 800129e:	e9c0 3505 	strd	r3, r5, [r0, #20]
 80012a2:	61c5      	str	r5, [r0, #28]
 80012a4:	f002 fdc8 	bl	8003e38 <HAL_UART_Init>
 80012a8:	4605      	mov	r5, r0
 80012aa:	b108      	cbz	r0, 80012b0 <main+0xec>
 80012ac:	b672      	cpsid	i
 80012ae:	e7fe      	b.n	80012ae <main+0xea>
 80012b0:	4601      	mov	r1, r0
 80012b2:	2210      	movs	r2, #16
 80012b4:	a807      	add	r0, sp, #28
 80012b6:	f003 fa05 	bl	80046c4 <memset>
 80012ba:	221c      	movs	r2, #28
 80012bc:	4629      	mov	r1, r5
 80012be:	a80b      	add	r0, sp, #44	@ 0x2c
 80012c0:	e9cd 5505 	strd	r5, r5, [sp, #20]
 80012c4:	f003 f9fe 	bl	80046c4 <memset>
 80012c8:	2220      	movs	r2, #32
 80012ca:	4629      	mov	r1, r5
 80012cc:	a812      	add	r0, sp, #72	@ 0x48
 80012ce:	f003 f9f9 	bl	80046c4 <memset>
 80012d2:	231f      	movs	r3, #31
 80012d4:	4c4d      	ldr	r4, [pc, #308]	@ (800140c <main+0x248>)
 80012d6:	4a4e      	ldr	r2, [pc, #312]	@ (8001410 <main+0x24c>)
 80012d8:	4620      	mov	r0, r4
 80012da:	e9c4 2300 	strd	r2, r3, [r4]
 80012de:	f240 33e7 	movw	r3, #999	@ 0x3e7
 80012e2:	e9c4 5505 	strd	r5, r5, [r4, #20]
 80012e6:	e9c4 3503 	strd	r3, r5, [r4, #12]
 80012ea:	60a5      	str	r5, [r4, #8]
 80012ec:	f002 f97e 	bl	80035ec <HAL_TIM_Base_Init>
 80012f0:	b108      	cbz	r0, 80012f6 <main+0x132>
 80012f2:	b672      	cpsid	i
 80012f4:	e7fe      	b.n	80012f4 <main+0x130>
 80012f6:	f44f 5780 	mov.w	r7, #4096	@ 0x1000
 80012fa:	4620      	mov	r0, r4
 80012fc:	a907      	add	r1, sp, #28
 80012fe:	9707      	str	r7, [sp, #28]
 8001300:	f002 fb54 	bl	80039ac <HAL_TIM_ConfigClockSource>
 8001304:	b108      	cbz	r0, 800130a <main+0x146>
 8001306:	b672      	cpsid	i
 8001308:	e7fe      	b.n	8001308 <main+0x144>
 800130a:	4620      	mov	r0, r4
 800130c:	f002 f99a 	bl	8003644 <HAL_TIM_PWM_Init>
 8001310:	b108      	cbz	r0, 8001316 <main+0x152>
 8001312:	b672      	cpsid	i
 8001314:	e7fe      	b.n	8001314 <main+0x150>
 8001316:	e9cd 0005 	strd	r0, r0, [sp, #20]
 800131a:	a905      	add	r1, sp, #20
 800131c:	4620      	mov	r0, r4
 800131e:	f002 fcc5 	bl	8003cac <HAL_TIMEx_MasterConfigSynchronization>
 8001322:	4602      	mov	r2, r0
 8001324:	b108      	cbz	r0, 800132a <main+0x166>
 8001326:	b672      	cpsid	i
 8001328:	e7fe      	b.n	8001328 <main+0x164>
 800132a:	2360      	movs	r3, #96	@ 0x60
 800132c:	e9cd 000d 	strd	r0, r0, [sp, #52]	@ 0x34
 8001330:	e9cd 300b 	strd	r3, r0, [sp, #44]	@ 0x2c
 8001334:	e9cd 000f 	strd	r0, r0, [sp, #60]	@ 0x3c
 8001338:	9011      	str	r0, [sp, #68]	@ 0x44
 800133a:	a90b      	add	r1, sp, #44	@ 0x2c
 800133c:	4620      	mov	r0, r4
 800133e:	f002 fa0f 	bl	8003760 <HAL_TIM_PWM_ConfigChannel>
 8001342:	b108      	cbz	r0, 8001348 <main+0x184>
 8001344:	b672      	cpsid	i
 8001346:	e7fe      	b.n	8001346 <main+0x182>
 8001348:	e9cd 0012 	strd	r0, r0, [sp, #72]	@ 0x48
 800134c:	e9cd 0014 	strd	r0, r0, [sp, #80]	@ 0x50
 8001350:	e9cd 0616 	strd	r0, r6, [sp, #88]	@ 0x58
 8001354:	9019      	str	r0, [sp, #100]	@ 0x64
 8001356:	a912      	add	r1, sp, #72	@ 0x48
 8001358:	4620      	mov	r0, r4
 800135a:	f002 fcdd 	bl	8003d18 <HAL_TIMEx_ConfigBreakDeadTime>
 800135e:	4605      	mov	r5, r0
 8001360:	b108      	cbz	r0, 8001366 <main+0x1a2>
 8001362:	b672      	cpsid	i
 8001364:	e7fe      	b.n	8001364 <main+0x1a0>
 8001366:	4620      	mov	r0, r4
 8001368:	f001 f810 	bl	800238c <HAL_TIM_MspPostInit>
 800136c:	2210      	movs	r2, #16
 800136e:	4629      	mov	r1, r5
 8001370:	a80b      	add	r0, sp, #44	@ 0x2c
 8001372:	f003 f9a7 	bl	80046c4 <memset>
 8001376:	2210      	movs	r2, #16
 8001378:	4629      	mov	r1, r5
 800137a:	a812      	add	r0, sp, #72	@ 0x48
 800137c:	4c25      	ldr	r4, [pc, #148]	@ (8001414 <main+0x250>)
 800137e:	e9cd 5507 	strd	r5, r5, [sp, #28]
 8001382:	f003 f99f 	bl	80046c4 <memset>
 8001386:	4b24      	ldr	r3, [pc, #144]	@ (8001418 <main+0x254>)
 8001388:	4620      	mov	r0, r4
 800138a:	e9c4 3500 	strd	r3, r5, [r4]
 800138e:	f64f 73ff 	movw	r3, #65535	@ 0xffff
 8001392:	e9c4 5505 	strd	r5, r5, [r4, #20]
 8001396:	e9c4 3503 	strd	r3, r5, [r4, #12]
 800139a:	60a5      	str	r5, [r4, #8]
 800139c:	f002 f926 	bl	80035ec <HAL_TIM_Base_Init>
 80013a0:	b108      	cbz	r0, 80013a6 <main+0x1e2>
 80013a2:	b672      	cpsid	i
 80013a4:	e7fe      	b.n	80013a4 <main+0x1e0>
 80013a6:	4620      	mov	r0, r4
 80013a8:	a90b      	add	r1, sp, #44	@ 0x2c
 80013aa:	970b      	str	r7, [sp, #44]	@ 0x2c
 80013ac:	f002 fafe 	bl	80039ac <HAL_TIM_ConfigClockSource>
 80013b0:	b108      	cbz	r0, 80013b6 <main+0x1f2>
 80013b2:	b672      	cpsid	i
 80013b4:	e7fe      	b.n	80013b4 <main+0x1f0>
 80013b6:	4620      	mov	r0, r4
 80013b8:	f002 f970 	bl	800369c <HAL_TIM_IC_Init>
 80013bc:	b108      	cbz	r0, 80013c2 <main+0x1fe>
 80013be:	b672      	cpsid	i
 80013c0:	e7fe      	b.n	80013c0 <main+0x1fc>
 80013c2:	2300      	movs	r3, #0
 80013c4:	4813      	ldr	r0, [pc, #76]	@ (8001414 <main+0x250>)
 80013c6:	a907      	add	r1, sp, #28
 80013c8:	e9cd 3307 	strd	r3, r3, [sp, #28]
 80013cc:	f002 fc6e 	bl	8003cac <HAL_TIMEx_MasterConfigSynchronization>
 80013d0:	4602      	mov	r2, r0
 80013d2:	b108      	cbz	r0, 80013d8 <main+0x214>
 80013d4:	b672      	cpsid	i
 80013d6:	e7fe      	b.n	80013d6 <main+0x212>
 80013d8:	2301      	movs	r3, #1
 80013da:	e9cd 3013 	strd	r3, r0, [sp, #76]	@ 0x4c
 80013de:	2308      	movs	r3, #8
 80013e0:	9012      	str	r0, [sp, #72]	@ 0x48
 80013e2:	a912      	add	r1, sp, #72	@ 0x48
 80013e4:	480b      	ldr	r0, [pc, #44]	@ (8001414 <main+0x250>)
 80013e6:	9315      	str	r3, [sp, #84]	@ 0x54
 80013e8:	f002 fa44 	bl	8003874 <HAL_TIM_IC_ConfigChannel>
 80013ec:	b108      	cbz	r0, 80013f2 <main+0x22e>
 80013ee:	b672      	cpsid	i
 80013f0:	e7fe      	b.n	80013f0 <main+0x22c>
 80013f2:	f000 fa07 	bl	8001804 <setup>
 80013f6:	f000 fe2d 	bl	8002054 <loop>
 80013fa:	e7fc      	b.n	80013f6 <main+0x232>
 80013fc:	40021000 	.word	0x40021000
 8001400:	40011000 	.word	0x40011000
 8001404:	20000118 	.word	0x20000118
 8001408:	40013800 	.word	0x40013800
 800140c:	200001a8 	.word	0x200001a8
 8001410:	40012c00 	.word	0x40012c00
 8001414:	20000160 	.word	0x20000160
 8001418:	40013400 	.word	0x40013400

0800141c <Error_Handler>:
 800141c:	b672      	cpsid	i
 800141e:	e7fe      	b.n	800141e <Error_Handler+0x2>

08001420 <_ZNK8std_msgs4Time9serializeEPh>:
 8001420:	6843      	ldr	r3, [r0, #4]
 8001422:	700b      	strb	r3, [r1, #0]
 8001424:	6843      	ldr	r3, [r0, #4]
 8001426:	0a1b      	lsrs	r3, r3, #8
 8001428:	704b      	strb	r3, [r1, #1]
 800142a:	88c3      	ldrh	r3, [r0, #6]
 800142c:	708b      	strb	r3, [r1, #2]
 800142e:	79c3      	ldrb	r3, [r0, #7]
 8001430:	70cb      	strb	r3, [r1, #3]
 8001432:	6883      	ldr	r3, [r0, #8]
 8001434:	710b      	strb	r3, [r1, #4]
 8001436:	6883      	ldr	r3, [r0, #8]
 8001438:	0a1b      	lsrs	r3, r3, #8
 800143a:	714b      	strb	r3, [r1, #5]
 800143c:	8943      	ldrh	r3, [r0, #10]
 800143e:	718b      	strb	r3, [r1, #6]
 8001440:	7ac3      	ldrb	r3, [r0, #11]
 8001442:	2008      	movs	r0, #8
 8001444:	71cb      	strb	r3, [r1, #7]
 8001446:	4770      	bx	lr

08001448 <_ZN8std_msgs4Time11deserializeEPh>:
 8001448:	780b      	ldrb	r3, [r1, #0]
 800144a:	6043      	str	r3, [r0, #4]
 800144c:	784a      	ldrb	r2, [r1, #1]
 800144e:	ea43 2302 	orr.w	r3, r3, r2, lsl #8
 8001452:	6043      	str	r3, [r0, #4]
 8001454:	788a      	ldrb	r2, [r1, #2]
 8001456:	ea43 4302 	orr.w	r3, r3, r2, lsl #16
 800145a:	6043      	str	r3, [r0, #4]
 800145c:	78ca      	ldrb	r2, [r1, #3]
 800145e:	ea43 6302 	orr.w	r3, r3, r2, lsl #24
 8001462:	6043      	str	r3, [r0, #4]
 8001464:	790b      	ldrb	r3, [r1, #4]
 8001466:	6083      	str	r3, [r0, #8]
 8001468:	794a      	ldrb	r2, [r1, #5]
 800146a:	ea43 2302 	orr.w	r3, r3, r2, lsl #8
 800146e:	6083      	str	r3, [r0, #8]
 8001470:	798a      	ldrb	r2, [r1, #6]
 8001472:	ea43 4302 	orr.w	r3, r3, r2, lsl #16
 8001476:	6083      	str	r3, [r0, #8]
 8001478:	79ca      	ldrb	r2, [r1, #7]
 800147a:	ea43 6302 	orr.w	r3, r3, r2, lsl #24
 800147e:	6083      	str	r3, [r0, #8]
 8001480:	2008      	movs	r0, #8
 8001482:	4770      	bx	lr

08001484 <_ZN8std_msgs4Time7getTypeEv>:
 8001484:	4800      	ldr	r0, [pc, #0]	@ (8001488 <_ZN8std_msgs4Time7getTypeEv+0x4>)
 8001486:	4770      	bx	lr
 8001488:	08004830 	.word	0x08004830

0800148c <_ZN8std_msgs4Time6getMD5Ev>:
 800148c:	4800      	ldr	r0, [pc, #0]	@ (8001490 <_ZN8std_msgs4Time6getMD5Ev+0x4>)
 800148e:	4770      	bx	lr
 8001490:	0800483e 	.word	0x0800483e

08001494 <_ZN14rosserial_msgs9TopicInfo7getTypeEv>:
 8001494:	4800      	ldr	r0, [pc, #0]	@ (8001498 <_ZN14rosserial_msgs9TopicInfo7getTypeEv+0x4>)
 8001496:	4770      	bx	lr
 8001498:	0800485f 	.word	0x0800485f

0800149c <_ZN14rosserial_msgs9TopicInfo6getMD5Ev>:
 800149c:	4800      	ldr	r0, [pc, #0]	@ (80014a0 <_ZN14rosserial_msgs9TopicInfo6getMD5Ev+0x4>)
 800149e:	4770      	bx	lr
 80014a0:	08004878 	.word	0x08004878

080014a4 <_ZN14rosserial_msgs3Log7getTypeEv>:
 80014a4:	4800      	ldr	r0, [pc, #0]	@ (80014a8 <_ZN14rosserial_msgs3Log7getTypeEv+0x4>)
 80014a6:	4770      	bx	lr
 80014a8:	08004899 	.word	0x08004899

080014ac <_ZN14rosserial_msgs3Log6getMD5Ev>:
 80014ac:	4800      	ldr	r0, [pc, #0]	@ (80014b0 <_ZN14rosserial_msgs3Log6getMD5Ev+0x4>)
 80014ae:	4770      	bx	lr
 80014b0:	080048ac 	.word	0x080048ac

080014b4 <_ZN14rosserial_msgs20RequestParamResponse7getTypeEv>:
 80014b4:	4800      	ldr	r0, [pc, #0]	@ (80014b8 <_ZN14rosserial_msgs20RequestParamResponse7getTypeEv+0x4>)
 80014b6:	4770      	bx	lr
 80014b8:	08004aec 	.word	0x08004aec

080014bc <_ZN14rosserial_msgs20RequestParamResponse6getMD5Ev>:
 80014bc:	4800      	ldr	r0, [pc, #0]	@ (80014c0 <_ZN14rosserial_msgs20RequestParamResponse6getMD5Ev+0x4>)
 80014be:	4770      	bx	lr
 80014c0:	080048cd 	.word	0x080048cd

080014c4 <_ZNK8std_msgs5UInt89serializeEPh>:
 80014c4:	7903      	ldrb	r3, [r0, #4]
 80014c6:	2001      	movs	r0, #1
 80014c8:	700b      	strb	r3, [r1, #0]
 80014ca:	4770      	bx	lr

080014cc <_ZN8std_msgs5UInt811deserializeEPh>:
 80014cc:	780b      	ldrb	r3, [r1, #0]
 80014ce:	7103      	strb	r3, [r0, #4]
 80014d0:	2001      	movs	r0, #1
 80014d2:	4770      	bx	lr

080014d4 <_ZN8std_msgs5UInt87getTypeEv>:
 80014d4:	4800      	ldr	r0, [pc, #0]	@ (80014d8 <_ZN8std_msgs5UInt87getTypeEv+0x4>)
 80014d6:	4770      	bx	lr
 80014d8:	080048ee 	.word	0x080048ee

080014dc <_ZN8std_msgs5UInt86getMD5Ev>:
 80014dc:	4800      	ldr	r0, [pc, #0]	@ (80014e0 <_ZN8std_msgs5UInt86getMD5Ev+0x4>)
 80014de:	4770      	bx	lr
 80014e0:	080048fd 	.word	0x080048fd

080014e4 <_ZNK8std_msgs6UInt329serializeEPh>:
 80014e4:	6843      	ldr	r3, [r0, #4]
 80014e6:	700b      	strb	r3, [r1, #0]
 80014e8:	6843      	ldr	r3, [r0, #4]
 80014ea:	0a1b      	lsrs	r3, r3, #8
 80014ec:	704b      	strb	r3, [r1, #1]
 80014ee:	88c3      	ldrh	r3, [r0, #6]
 80014f0:	708b      	strb	r3, [r1, #2]
 80014f2:	79c3      	ldrb	r3, [r0, #7]
 80014f4:	2004      	movs	r0, #4
 80014f6:	70cb      	strb	r3, [r1, #3]
 80014f8:	4770      	bx	lr

080014fa <_ZN8std_msgs6UInt3211deserializeEPh>:
 80014fa:	780b      	ldrb	r3, [r1, #0]
 80014fc:	6043      	str	r3, [r0, #4]
 80014fe:	784a      	ldrb	r2, [r1, #1]
 8001500:	ea43 2302 	orr.w	r3, r3, r2, lsl #8
 8001504:	6043      	str	r3, [r0, #4]
 8001506:	788a      	ldrb	r2, [r1, #2]
 8001508:	ea43 4302 	orr.w	r3, r3, r2, lsl #16
 800150c:	6043      	str	r3, [r0, #4]
 800150e:	78ca      	ldrb	r2, [r1, #3]
 8001510:	ea43 6302 	orr.w	r3, r3, r2, lsl #24
 8001514:	6043      	str	r3, [r0, #4]
 8001516:	2004      	movs	r0, #4
 8001518:	4770      	bx	lr
	...

0800151c <_ZN8std_msgs6UInt327getTypeEv>:
 800151c:	4800      	ldr	r0, [pc, #0]	@ (8001520 <_ZN8std_msgs6UInt327getTypeEv+0x4>)
 800151e:	4770      	bx	lr
 8001520:	0800491e 	.word	0x0800491e

08001524 <_ZN8std_msgs6UInt326getMD5Ev>:
 8001524:	4800      	ldr	r0, [pc, #0]	@ (8001528 <_ZN8std_msgs6UInt326getMD5Ev+0x4>)
 8001526:	4770      	bx	lr
 8001528:	0800492e 	.word	0x0800492e

0800152c <_ZNK8std_msgs7Float649serializeEPh>:
 800152c:	e9d0 2302 	ldrd	r2, r3, [r0, #8]
 8001530:	0a10      	lsrs	r0, r2, #8
 8001532:	700a      	strb	r2, [r1, #0]
 8001534:	7048      	strb	r0, [r1, #1]
 8001536:	0c10      	lsrs	r0, r2, #16
 8001538:	0e12      	lsrs	r2, r2, #24
 800153a:	70ca      	strb	r2, [r1, #3]
 800153c:	0a1a      	lsrs	r2, r3, #8
 800153e:	710b      	strb	r3, [r1, #4]
 8001540:	714a      	strb	r2, [r1, #5]
 8001542:	0c1a      	lsrs	r2, r3, #16
 8001544:	0e1b      	lsrs	r3, r3, #24
 8001546:	7088      	strb	r0, [r1, #2]
 8001548:	718a      	strb	r2, [r1, #6]
 800154a:	2008      	movs	r0, #8
 800154c:	71cb      	strb	r3, [r1, #7]
 800154e:	4770      	bx	lr

08001550 <_ZN8std_msgs7Float6411deserializeEPh>:
 8001550:	680a      	ldr	r2, [r1, #0]
 8001552:	684b      	ldr	r3, [r1, #4]
 8001554:	e9c0 2302 	strd	r2, r3, [r0, #8]
 8001558:	2008      	movs	r0, #8
 800155a:	4770      	bx	lr

0800155c <_ZN8std_msgs7Float647getTypeEv>:
 800155c:	4800      	ldr	r0, [pc, #0]	@ (8001560 <_ZN8std_msgs7Float647getTypeEv+0x4>)
 800155e:	4770      	bx	lr
 8001560:	0800494f 	.word	0x0800494f

08001564 <_ZN8std_msgs7Float646getMD5Ev>:
 8001564:	4800      	ldr	r0, [pc, #0]	@ (8001568 <_ZN8std_msgs7Float646getMD5Ev+0x4>)
 8001566:	4770      	bx	lr
 8001568:	08004960 	.word	0x08004960

0800156c <_Z16motorVelCallbackRKN8std_msgs5UInt8E>:
 800156c:	b538      	push	{r3, r4, r5, lr}
 800156e:	7904      	ldrb	r4, [r0, #4]
 8001570:	4b04      	ldr	r3, [pc, #16]	@ (8001584 <_Z16motorVelCallbackRKN8std_msgs5UInt8E+0x18>)
 8001572:	4620      	mov	r0, r4
 8001574:	681d      	ldr	r5, [r3, #0]
 8001576:	f7fe ff9f 	bl	80004b8 <__aeabi_ui2d>
 800157a:	4b03      	ldr	r3, [pc, #12]	@ (8001588 <_Z16motorVelCallbackRKN8std_msgs5UInt8E+0x1c>)
 800157c:	e9c5 0100 	strd	r0, r1, [r5]
 8001580:	701c      	strb	r4, [r3, #0]
 8001582:	bd38      	pop	{r3, r4, r5, pc}
 8001584:	20000220 	.word	0x20000220
 8001588:	200001f0 	.word	0x200001f0

0800158c <_Z13pGainCallbackRKN8std_msgs7Float64E>:
 800158c:	4b04      	ldr	r3, [pc, #16]	@ (80015a0 <_Z13pGainCallbackRKN8std_msgs7Float64E+0x14>)
 800158e:	f100 0108 	add.w	r1, r0, #8
 8001592:	e9d1 0100 	ldrd	r0, r1, [r1]
 8001596:	681b      	ldr	r3, [r3, #0]
 8001598:	e9c3 0102 	strd	r0, r1, [r3, #8]
 800159c:	4770      	bx	lr
 800159e:	bf00      	nop
 80015a0:	20000220 	.word	0x20000220

080015a4 <_ZN3ros10SubscriberIN8std_msgs7Float64EvE8callbackEPh>:
 80015a4:	b570      	push	{r4, r5, r6, lr}
 80015a6:	4604      	mov	r4, r0
 80015a8:	f100 0510 	add.w	r5, r0, #16
 80015ac:	4628      	mov	r0, r5
 80015ae:	f7ff ffcf 	bl	8001550 <_ZN8std_msgs7Float6411deserializeEPh>
 80015b2:	4628      	mov	r0, r5
 80015b4:	6a23      	ldr	r3, [r4, #32]
 80015b6:	e8bd 4070 	ldmia.w	sp!, {r4, r5, r6, lr}
 80015ba:	4718      	bx	r3

080015bc <_ZN3ros10SubscriberIN8std_msgs7Float64EvE15getEndpointTypeEv>:
 80015bc:	6a40      	ldr	r0, [r0, #36]	@ 0x24
 80015be:	4770      	bx	lr

080015c0 <_ZN3ros10SubscriberIN8std_msgs7Float64EvE10getMsgTypeEv>:
 80015c0:	4800      	ldr	r0, [pc, #0]	@ (80015c4 <_ZN3ros10SubscriberIN8std_msgs7Float64EvE10getMsgTypeEv+0x4>)
 80015c2:	4770      	bx	lr
 80015c4:	0800494f 	.word	0x0800494f

080015c8 <_ZN3ros10SubscriberIN8std_msgs7Float64EvE9getMsgMD5Ev>:
 80015c8:	4800      	ldr	r0, [pc, #0]	@ (80015cc <_ZN3ros10SubscriberIN8std_msgs7Float64EvE9getMsgMD5Ev+0x4>)
 80015ca:	4770      	bx	lr
 80015cc:	08004960 	.word	0x08004960

080015d0 <_ZN3ros10SubscriberIN8std_msgs5UInt8EvE8callbackEPh>:
 80015d0:	780b      	ldrb	r3, [r1, #0]
 80015d2:	300c      	adds	r0, #12
 80015d4:	7103      	strb	r3, [r0, #4]
 80015d6:	6883      	ldr	r3, [r0, #8]
 80015d8:	4718      	bx	r3

080015da <_ZN3ros10SubscriberIN8std_msgs5UInt8EvE15getEndpointTypeEv>:
 80015da:	6980      	ldr	r0, [r0, #24]
 80015dc:	4770      	bx	lr
	...

080015e0 <_ZN3ros10SubscriberIN8std_msgs5UInt8EvE10getMsgTypeEv>:
 80015e0:	4800      	ldr	r0, [pc, #0]	@ (80015e4 <_ZN3ros10SubscriberIN8std_msgs5UInt8EvE10getMsgTypeEv+0x4>)
 80015e2:	4770      	bx	lr
 80015e4:	080048ee 	.word	0x080048ee

080015e8 <_ZN3ros10SubscriberIN8std_msgs5UInt8EvE9getMsgMD5Ev>:
 80015e8:	4800      	ldr	r0, [pc, #0]	@ (80015ec <_ZN3ros10SubscriberIN8std_msgs5UInt8EvE9getMsgMD5Ev+0x4>)
 80015ea:	4770      	bx	lr
 80015ec:	080048fd 	.word	0x080048fd

080015f0 <_ZN3ros11NodeHandle_I13STM32HardwareLi10ELi10ELi4096ELi4096EE9connectedEv>:
 80015f0:	f500 5000 	add.w	r0, r0, #8192	@ 0x2000
 80015f4:	f890 007c 	ldrb.w	r0, [r0, #124]	@ 0x7c
 80015f8:	4770      	bx	lr

080015fa <_ZN3ros11NodeHandle_I13STM32HardwareLi10ELi10ELi4096ELi4096EE9subscribeERNS_11Subscriber_E.isra.0>:
 80015fa:	2300      	movs	r3, #0
 80015fc:	b510      	push	{r4, lr}
 80015fe:	f500 5200 	add.w	r2, r0, #8192	@ 0x2000
 8001602:	323c      	adds	r2, #60	@ 0x3c
 8001604:	f852 4f04 	ldr.w	r4, [r2, #4]!
 8001608:	b934      	cbnz	r4, 8001618 <_ZN3ros11NodeHandle_I13STM32HardwareLi10ELi10ELi4096ELi4096EE9subscribeERNS_11Subscriber_E.isra.0+0x1e>
 800160a:	f503 6201 	add.w	r2, r3, #2064	@ 0x810
 800160e:	3364      	adds	r3, #100	@ 0x64
 8001610:	f840 1022 	str.w	r1, [r0, r2, lsl #2]
 8001614:	604b      	str	r3, [r1, #4]
 8001616:	bd10      	pop	{r4, pc}
 8001618:	3301      	adds	r3, #1
 800161a:	2b0a      	cmp	r3, #10
 800161c:	d1f2      	bne.n	8001604 <_ZN3ros11NodeHandle_I13STM32HardwareLi10ELi10ELi4096ELi4096EE9subscribeERNS_11Subscriber_E.isra.0+0xa>
 800161e:	e7fa      	b.n	8001616 <_ZN3ros11NodeHandle_I13STM32HardwareLi10ELi10ELi4096ELi4096EE9subscribeERNS_11Subscriber_E.isra.0+0x1c>

08001620 <_ZN3ros11NodeHandle_I13STM32HardwareLi10ELi10ELi4096ELi4096EE7publishEiPKNS_3MsgE>:
 8001620:	e92d 43f0 	stmdb	sp!, {r4, r5, r6, r7, r8, r9, lr}
 8001624:	2963      	cmp	r1, #99	@ 0x63
 8001626:	4604      	mov	r4, r0
 8001628:	460e      	mov	r6, r1
 800162a:	4610      	mov	r0, r2
 800162c:	b085      	sub	sp, #20
 800162e:	dd05      	ble.n	800163c <_ZN3ros11NodeHandle_I13STM32HardwareLi10ELi10ELi4096ELi4096EE7publishEiPKNS_3MsgE+0x1c>
 8001630:	f504 5300 	add.w	r3, r4, #8192	@ 0x2000
 8001634:	f893 507c 	ldrb.w	r5, [r3, #124]	@ 0x7c
 8001638:	2d00      	cmp	r5, #0
 800163a:	d060      	beq.n	80016fe <_ZN3ros11NodeHandle_I13STM32HardwareLi10ELi10ELi4096ELi4096EE7publishEiPKNS_3MsgE+0xde>
 800163c:	6803      	ldr	r3, [r0, #0]
 800163e:	f504 5180 	add.w	r1, r4, #4096	@ 0x1000
 8001642:	681b      	ldr	r3, [r3, #0]
 8001644:	311f      	adds	r1, #31
 8001646:	4798      	blx	r3
 8001648:	f64f 62ff 	movw	r2, #65279	@ 0xfeff
 800164c:	f504 5380 	add.w	r3, r4, #4096	@ 0x1000
 8001650:	831a      	strh	r2, [r3, #24]
 8001652:	f3c0 2207 	ubfx	r2, r0, #8, #8
 8001656:	4402      	add	r2, r0
 8001658:	43d2      	mvns	r2, r2
 800165a:	775e      	strb	r6, [r3, #29]
 800165c:	771a      	strb	r2, [r3, #28]
 800165e:	f346 2607 	sbfx	r6, r6, #8, #8
 8001662:	461a      	mov	r2, r3
 8001664:	779e      	strb	r6, [r3, #30]
 8001666:	8358      	strh	r0, [r3, #26]
 8001668:	2300      	movs	r3, #0
 800166a:	4e35      	ldr	r6, [pc, #212]	@ (8001740 <_ZN3ros11NodeHandle_I13STM32HardwareLi10ELi10ELi4096ELi4096EE7publishEiPKNS_3MsgE+0x120>)
 800166c:	321c      	adds	r2, #28
 800166e:	1d85      	adds	r5, r0, #6
 8001670:	1b36      	subs	r6, r6, r4
 8001672:	18b1      	adds	r1, r6, r2
 8001674:	428d      	cmp	r5, r1
 8001676:	da46      	bge.n	8001706 <_ZN3ros11NodeHandle_I13STM32HardwareLi10ELi10ELi4096ELi4096EE7publishEiPKNS_3MsgE+0xe6>
 8001678:	43db      	mvns	r3, r3
 800167a:	f241 011f 	movw	r1, #4127	@ 0x101f
 800167e:	1822      	adds	r2, r4, r0
 8001680:	5453      	strb	r3, [r2, r1]
 8001682:	f241 0301 	movw	r3, #4097	@ 0x1001
 8001686:	f100 0508 	add.w	r5, r0, #8
 800168a:	429d      	cmp	r5, r3
 800168c:	d048      	beq.n	8001720 <_ZN3ros11NodeHandle_I13STM32HardwareLi10ELi10ELi4096ELi4096EE7publishEiPKNS_3MsgE+0x100>
 800168e:	3007      	adds	r0, #7
 8001690:	f5b0 5f80 	cmp.w	r0, #4096	@ 0x1000
 8001694:	d233      	bcs.n	80016fe <_ZN3ros11NodeHandle_I13STM32HardwareLi10ELi10ELi4096ELi4096EE7publishEiPKNS_3MsgE+0xde>
 8001696:	6866      	ldr	r6, [r4, #4]
 8001698:	f504 5780 	add.w	r7, r4, #4096	@ 0x1000
 800169c:	f506 5400 	add.w	r4, r6, #8192	@ 0x2000
 80016a0:	88e0      	ldrh	r0, [r4, #6]
 80016a2:	46a8      	mov	r8, r5
 80016a4:	f5c0 5980 	rsb	r9, r0, #4096	@ 0x1000
 80016a8:	454d      	cmp	r5, r9
 80016aa:	bfa8      	it	ge
 80016ac:	46c8      	movge	r8, r9
 80016ae:	3718      	adds	r7, #24
 80016b0:	3004      	adds	r0, #4
 80016b2:	4642      	mov	r2, r8
 80016b4:	4639      	mov	r1, r7
 80016b6:	4430      	add	r0, r6
 80016b8:	f003 f848 	bl	800474c <memcpy>
 80016bc:	88e3      	ldrh	r3, [r4, #6]
 80016be:	454d      	cmp	r5, r9
 80016c0:	442b      	add	r3, r5
 80016c2:	f3c3 030b 	ubfx	r3, r3, #0, #12
 80016c6:	80e3      	strh	r3, [r4, #6]
 80016c8:	dd06      	ble.n	80016d8 <_ZN3ros11NodeHandle_I13STM32HardwareLi10ELi10ELi4096ELi4096EE7publishEiPKNS_3MsgE+0xb8>
 80016ca:	eba5 0208 	sub.w	r2, r5, r8
 80016ce:	eb07 0108 	add.w	r1, r7, r8
 80016d2:	1d30      	adds	r0, r6, #4
 80016d4:	f003 f83a 	bl	800474c <memcpy>
 80016d8:	7923      	ldrb	r3, [r4, #4]
 80016da:	b183      	cbz	r3, 80016fe <_ZN3ros11NodeHandle_I13STM32HardwareLi10ELi10ELi4096ELi4096EE7publishEiPKNS_3MsgE+0xde>
 80016dc:	88e3      	ldrh	r3, [r4, #6]
 80016de:	8922      	ldrh	r2, [r4, #8]
 80016e0:	4293      	cmp	r3, r2
 80016e2:	d00a      	beq.n	80016fa <_ZN3ros11NodeHandle_I13STM32HardwareLi10ELi10ELi4096ELi4096EE7publishEiPKNS_3MsgE+0xda>
 80016e4:	f102 0104 	add.w	r1, r2, #4
 80016e8:	6830      	ldr	r0, [r6, #0]
 80016ea:	4431      	add	r1, r6
 80016ec:	d90f      	bls.n	800170e <_ZN3ros11NodeHandle_I13STM32HardwareLi10ELi10ELi4096ELi4096EE7publishEiPKNS_3MsgE+0xee>
 80016ee:	1a9a      	subs	r2, r3, r2
 80016f0:	b292      	uxth	r2, r2
 80016f2:	f002 fbd1 	bl	8003e98 <HAL_UART_Transmit_DMA>
 80016f6:	88e3      	ldrh	r3, [r4, #6]
 80016f8:	8123      	strh	r3, [r4, #8]
 80016fa:	2300      	movs	r3, #0
 80016fc:	7123      	strb	r3, [r4, #4]
 80016fe:	4628      	mov	r0, r5
 8001700:	b005      	add	sp, #20
 8001702:	e8bd 83f0 	ldmia.w	sp!, {r4, r5, r6, r7, r8, r9, pc}
 8001706:	f812 1f01 	ldrb.w	r1, [r2, #1]!
 800170a:	440b      	add	r3, r1
 800170c:	e7b1      	b.n	8001672 <_ZN3ros11NodeHandle_I13STM32HardwareLi10ELi10ELi4096ELi4096EE7publishEiPKNS_3MsgE+0x52>
 800170e:	f5c2 5280 	rsb	r2, r2, #4096	@ 0x1000
 8001712:	b292      	uxth	r2, r2
 8001714:	f002 fbc0 	bl	8003e98 <HAL_UART_Transmit_DMA>
 8001718:	88e2      	ldrh	r2, [r4, #6]
 800171a:	6830      	ldr	r0, [r6, #0]
 800171c:	1d31      	adds	r1, r6, #4
 800171e:	e7e8      	b.n	80016f2 <_ZN3ros11NodeHandle_I13STM32HardwareLi10ELi10ELi4096ELi4096EE7publishEiPKNS_3MsgE+0xd2>
 8001720:	4b08      	ldr	r3, [pc, #32]	@ (8001744 <_ZN3ros11NodeHandle_I13STM32HardwareLi10ELi10ELi4096ELi4096EE7publishEiPKNS_3MsgE+0x124>)
 8001722:	2107      	movs	r1, #7
 8001724:	9301      	str	r3, [sp, #4]
 8001726:	2303      	movs	r3, #3
 8001728:	f88d 3008 	strb.w	r3, [sp, #8]
 800172c:	4b06      	ldr	r3, [pc, #24]	@ (8001748 <_ZN3ros11NodeHandle_I13STM32HardwareLi10ELi10ELi4096ELi4096EE7publishEiPKNS_3MsgE+0x128>)
 800172e:	4620      	mov	r0, r4
 8001730:	9303      	str	r3, [sp, #12]
 8001732:	6823      	ldr	r3, [r4, #0]
 8001734:	aa01      	add	r2, sp, #4
 8001736:	681b      	ldr	r3, [r3, #0]
 8001738:	4798      	blx	r3
 800173a:	f04f 35ff 	mov.w	r5, #4294967295
 800173e:	e7de      	b.n	80016fe <_ZN3ros11NodeHandle_I13STM32HardwareLi10ELi10ELi4096ELi4096EE7publishEiPKNS_3MsgE+0xde>
 8001740:	ffffefe9 	.word	0xffffefe9
 8001744:	08004a38 	.word	0x08004a38
 8001748:	08004981 	.word	0x08004981

0800174c <HAL_UART_TxCpltCallback>:
 800174c:	2201      	movs	r2, #1
 800174e:	4b01      	ldr	r3, [pc, #4]	@ (8001754 <HAL_UART_TxCpltCallback+0x8>)
 8001750:	711a      	strb	r2, [r3, #4]
 8001752:	4770      	bx	lr
 8001754:	200043a4 	.word	0x200043a4

08001758 <HAL_UART_RxCpltCallback>:
 8001758:	4b03      	ldr	r3, [pc, #12]	@ (8001768 <HAL_UART_RxCpltCallback+0x10>)
 800175a:	f44f 5280 	mov.w	r2, #4096	@ 0x1000
 800175e:	4903      	ldr	r1, [pc, #12]	@ (800176c <HAL_UART_RxCpltCallback+0x14>)
 8001760:	6818      	ldr	r0, [r3, #0]
 8001762:	f002 be83 	b.w	800446c <HAL_UART_Receive_DMA>
 8001766:	bf00      	nop
 8001768:	200023a4 	.word	0x200023a4
 800176c:	200033a8 	.word	0x200033a8

08001770 <HAL_TIM_IC_CaptureCallback>:
 8001770:	7f03      	ldrb	r3, [r0, #28]
 8001772:	2b01      	cmp	r3, #1
 8001774:	d104      	bne.n	8001780 <HAL_TIM_IC_CaptureCallback+0x10>
 8001776:	4b03      	ldr	r3, [pc, #12]	@ (8001784 <HAL_TIM_IC_CaptureCallback+0x14>)
 8001778:	681a      	ldr	r2, [r3, #0]
 800177a:	8813      	ldrh	r3, [r2, #0]
 800177c:	3301      	adds	r3, #1
 800177e:	8013      	strh	r3, [r2, #0]
 8001780:	4770      	bx	lr
 8001782:	bf00      	nop
 8001784:	2000022c 	.word	0x2000022c

08001788 <_Z9ros_setupv>:
 8001788:	f44f 5280 	mov.w	r2, #4096	@ 0x1000
 800178c:	b538      	push	{r3, r4, r5, lr}
 800178e:	2400      	movs	r4, #0
 8001790:	4d15      	ldr	r5, [pc, #84]	@ (80017e8 <_Z9ros_setupv+0x60>)
 8001792:	686b      	ldr	r3, [r5, #4]
 8001794:	1899      	adds	r1, r3, r2
 8001796:	6818      	ldr	r0, [r3, #0]
 8001798:	3104      	adds	r1, #4
 800179a:	f002 fe67 	bl	800446c <HAL_UART_Receive_DMA>
 800179e:	f505 5300 	add.w	r3, r5, #8192	@ 0x2000
 80017a2:	4628      	mov	r0, r5
 80017a4:	4911      	ldr	r1, [pc, #68]	@ (80017ec <_Z9ros_setupv+0x64>)
 80017a6:	e9c3 441a 	strd	r4, r4, [r3, #104]	@ 0x68
 80017aa:	e9c3 441c 	strd	r4, r4, [r3, #112]	@ 0x70
 80017ae:	f7ff ff24 	bl	80015fa <_ZN3ros11NodeHandle_I13STM32HardwareLi10ELi10ELi4096ELi4096EE9subscribeERNS_11Subscriber_E.isra.0>
 80017b2:	490f      	ldr	r1, [pc, #60]	@ (80017f0 <_Z9ros_setupv+0x68>)
 80017b4:	f7ff ff21 	bl	80015fa <_ZN3ros11NodeHandle_I13STM32HardwareLi10ELi10ELi4096ELi4096EE9subscribeERNS_11Subscriber_E.isra.0>
 80017b8:	490e      	ldr	r1, [pc, #56]	@ (80017f4 <_Z9ros_setupv+0x6c>)
 80017ba:	f7ff ff1e 	bl	80015fa <_ZN3ros11NodeHandle_I13STM32HardwareLi10ELi10ELi4096ELi4096EE9subscribeERNS_11Subscriber_E.isra.0>
 80017be:	490e      	ldr	r1, [pc, #56]	@ (80017f8 <_Z9ros_setupv+0x70>)
 80017c0:	f7ff ff1b 	bl	80015fa <_ZN3ros11NodeHandle_I13STM32HardwareLi10ELi10ELi4096ELi4096EE9subscribeERNS_11Subscriber_E.isra.0>
 80017c4:	4b0d      	ldr	r3, [pc, #52]	@ (80017fc <_Z9ros_setupv+0x74>)
 80017c6:	f853 2f04 	ldr.w	r2, [r3, #4]!
 80017ca:	b942      	cbnz	r2, 80017de <_Z9ros_setupv+0x56>
 80017cc:	4b0c      	ldr	r3, [pc, #48]	@ (8001800 <_Z9ros_setupv+0x78>)
 80017ce:	f604 0206 	addw	r2, r4, #2054	@ 0x806
 80017d2:	346e      	adds	r4, #110	@ 0x6e
 80017d4:	e9c3 4502 	strd	r4, r5, [r3, #8]
 80017d8:	f845 3022 	str.w	r3, [r5, r2, lsl #2]
 80017dc:	bd38      	pop	{r3, r4, r5, pc}
 80017de:	3401      	adds	r4, #1
 80017e0:	2c0a      	cmp	r4, #10
 80017e2:	d1f0      	bne.n	80017c6 <_Z9ros_setupv+0x3e>
 80017e4:	e7fa      	b.n	80017dc <_Z9ros_setupv+0x54>
 80017e6:	bf00      	nop
 80017e8:	200002ec 	.word	0x200002ec
 80017ec:	200002c8 	.word	0x200002c8
 80017f0:	200002a0 	.word	0x200002a0
 80017f4:	20000278 	.word	0x20000278
 80017f8:	20000250 	.word	0x20000250
 80017fc:	20002300 	.word	0x20002300
 8001800:	20000230 	.word	0x20000230

08001804 <setup>:
 8001804:	b510      	push	{r4, lr}
 8001806:	b088      	sub	sp, #32
 8001808:	f7ff ffbe 	bl	8001788 <_Z9ros_setupv>
 800180c:	f64f 73ff 	movw	r3, #65535	@ 0xffff
 8001810:	9302      	str	r3, [sp, #8]
 8001812:	2300      	movs	r3, #0
 8001814:	f8ad 300c 	strh.w	r3, [sp, #12]
 8001818:	9903      	ldr	r1, [sp, #12]
 800181a:	f64f 70ff 	movw	r0, #65535	@ 0xffff
 800181e:	f7ff fc89 	bl	8001134 <Encoder_Init>
 8001822:	4b11      	ldr	r3, [pc, #68]	@ (8001868 <setup+0x64>)
 8001824:	ac04      	add	r4, sp, #16
 8001826:	6018      	str	r0, [r3, #0]
 8001828:	f7ff fc94 	bl	8001154 <Encoder_Start>
 800182c:	21d0      	movs	r1, #208	@ 0xd0
 800182e:	2001      	movs	r0, #1
 8001830:	f002 fe2e 	bl	8004490 <calloc>
 8001834:	4b0d      	ldr	r3, [pc, #52]	@ (800186c <setup+0x68>)
 8001836:	6018      	str	r0, [r3, #0]
 8001838:	f000 fd0c 	bl	8002254 <Moving_Avg_Init>
 800183c:	4b0c      	ldr	r3, [pc, #48]	@ (8001870 <setup+0x6c>)
 800183e:	cb0f      	ldmia	r3, {r0, r1, r2, r3}
 8001840:	e884 000f 	stmia.w	r4, {r0, r1, r2, r3}
 8001844:	f7ff fc32 	bl	80010ac <Motor_Init>
 8001848:	4b0a      	ldr	r3, [pc, #40]	@ (8001874 <setup+0x70>)
 800184a:	6018      	str	r0, [r3, #0]
 800184c:	f7ff fc60 	bl	8001110 <Motor_Start>
 8001850:	2200      	movs	r2, #0
 8001852:	2300      	movs	r3, #0
 8001854:	4908      	ldr	r1, [pc, #32]	@ (8001878 <setup+0x74>)
 8001856:	e9cd 2300 	strd	r2, r3, [sp]
 800185a:	2000      	movs	r0, #0
 800185c:	f000 fd16 	bl	800228c <PID_Init>
 8001860:	4b06      	ldr	r3, [pc, #24]	@ (800187c <setup+0x78>)
 8001862:	6018      	str	r0, [r3, #0]
 8001864:	b008      	add	sp, #32
 8001866:	bd10      	pop	{r4, pc}
 8001868:	2000022c 	.word	0x2000022c
 800186c:	20000228 	.word	0x20000228
 8001870:	08004820 	.word	0x08004820
 8001874:	20000224 	.word	0x20000224
 8001878:	40240000 	.word	0x40240000
 800187c:	20000220 	.word	0x20000220

08001880 <_Z9updateRpmv>:
 8001880:	b538      	push	{r3, r4, r5, lr}
 8001882:	4b1e      	ldr	r3, [pc, #120]	@ (80018fc <_Z9updateRpmv+0x7c>)
 8001884:	4a1e      	ldr	r2, [pc, #120]	@ (8001900 <_Z9updateRpmv+0x80>)
 8001886:	6819      	ldr	r1, [r3, #0]
 8001888:	8814      	ldrh	r4, [r2, #0]
 800188a:	880b      	ldrh	r3, [r1, #0]
 800188c:	42a3      	cmp	r3, r4
 800188e:	bf38      	it	cc
 8001890:	6849      	ldrcc	r1, [r1, #4]
 8001892:	eba3 0004 	sub.w	r0, r3, r4
 8001896:	b280      	uxth	r0, r0
 8001898:	bf38      	it	cc
 800189a:	1840      	addcc	r0, r0, r1
 800189c:	4919      	ldr	r1, [pc, #100]	@ (8001904 <_Z9updateRpmv+0x84>)
 800189e:	bf38      	it	cc
 80018a0:	b280      	uxthcc	r0, r0
 80018a2:	8013      	strh	r3, [r2, #0]
 80018a4:	8008      	strh	r0, [r1, #0]
 80018a6:	f7fe fe07 	bl	80004b8 <__aeabi_ui2d>
 80018aa:	2200      	movs	r2, #0
 80018ac:	4b16      	ldr	r3, [pc, #88]	@ (8001908 <_Z9updateRpmv+0x88>)
 80018ae:	f7fe ffa7 	bl	8000800 <__aeabi_ddiv>
 80018b2:	460d      	mov	r5, r1
 80018b4:	4915      	ldr	r1, [pc, #84]	@ (800190c <_Z9updateRpmv+0x8c>)
 80018b6:	4604      	mov	r4, r0
 80018b8:	e9d1 0102 	ldrd	r0, r1, [r1, #8]
 80018bc:	2200      	movs	r2, #0
 80018be:	4b14      	ldr	r3, [pc, #80]	@ (8001910 <_Z9updateRpmv+0x90>)
 80018c0:	f7fe ff9e 	bl	8000800 <__aeabi_ddiv>
 80018c4:	4602      	mov	r2, r0
 80018c6:	460b      	mov	r3, r1
 80018c8:	4620      	mov	r0, r4
 80018ca:	4629      	mov	r1, r5
 80018cc:	f7fe ff98 	bl	8000800 <__aeabi_ddiv>
 80018d0:	2200      	movs	r2, #0
 80018d2:	4b10      	ldr	r3, [pc, #64]	@ (8001914 <_Z9updateRpmv+0x94>)
 80018d4:	f7fe fe6a 	bl	80005ac <__aeabi_dmul>
 80018d8:	4604      	mov	r4, r0
 80018da:	460d      	mov	r5, r1
 80018dc:	4b0e      	ldr	r3, [pc, #56]	@ (8001918 <_Z9updateRpmv+0x98>)
 80018de:	e9c3 4500 	strd	r4, r5, [r3]
 80018e2:	f7ff f8fd 	bl	8000ae0 <__aeabi_d2uiz>
 80018e6:	4c0d      	ldr	r4, [pc, #52]	@ (800191c <_Z9updateRpmv+0x9c>)
 80018e8:	4b0d      	ldr	r3, [pc, #52]	@ (8001920 <_Z9updateRpmv+0xa0>)
 80018ea:	4601      	mov	r1, r0
 80018ec:	6020      	str	r0, [r4, #0]
 80018ee:	6818      	ldr	r0, [r3, #0]
 80018f0:	f000 fcb6 	bl	8002260 <Moving_Avg_Compute>
 80018f4:	4b0b      	ldr	r3, [pc, #44]	@ (8001924 <_Z9updateRpmv+0xa4>)
 80018f6:	6020      	str	r0, [r4, #0]
 80018f8:	6058      	str	r0, [r3, #4]
 80018fa:	bd38      	pop	{r3, r4, r5, pc}
 80018fc:	2000022c 	.word	0x2000022c
 8001900:	20000202 	.word	0x20000202
 8001904:	20000200 	.word	0x20000200
 8001908:	40340000 	.word	0x40340000
 800190c:	20000000 	.word	0x20000000
 8001910:	408f4000 	.word	0x408f4000
 8001914:	404e0000 	.word	0x404e0000
 8001918:	200001f8 	.word	0x200001f8
 800191c:	200001f4 	.word	0x200001f4
 8001920:	20000228 	.word	0x20000228
 8001924:	20000244 	.word	0x20000244

08001928 <_Z13publishRpmMsgv>:
 8001928:	4b04      	ldr	r3, [pc, #16]	@ (800193c <_Z13publishRpmMsgv+0x14>)
 800192a:	b410      	push	{r4}
 800192c:	68d8      	ldr	r0, [r3, #12]
 800192e:	6899      	ldr	r1, [r3, #8]
 8001930:	6802      	ldr	r2, [r0, #0]
 8001932:	6814      	ldr	r4, [r2, #0]
 8001934:	4a02      	ldr	r2, [pc, #8]	@ (8001940 <_Z13publishRpmMsgv+0x18>)
 8001936:	4623      	mov	r3, r4
 8001938:	bc10      	pop	{r4}
 800193a:	4718      	bx	r3
 800193c:	20000230 	.word	0x20000230
 8001940:	20000244 	.word	0x20000244

08001944 <_ZN3ros3Msg8varToArrIPhmEEvT_T0_>:
 8001944:	0a0b      	lsrs	r3, r1, #8
 8001946:	7001      	strb	r1, [r0, #0]
 8001948:	7043      	strb	r3, [r0, #1]
 800194a:	0c0b      	lsrs	r3, r1, #16
 800194c:	0e09      	lsrs	r1, r1, #24
 800194e:	7083      	strb	r3, [r0, #2]
 8001950:	70c1      	strb	r1, [r0, #3]
 8001952:	4770      	bx	lr

08001954 <_ZNK14rosserial_msgs20RequestParamResponse9serializeEPh>:
 8001954:	6843      	ldr	r3, [r0, #4]
 8001956:	e92d 41f0 	stmdb	sp!, {r4, r5, r6, r7, r8, lr}
 800195a:	700b      	strb	r3, [r1, #0]
 800195c:	6843      	ldr	r3, [r0, #4]
 800195e:	460d      	mov	r5, r1
 8001960:	0a1b      	lsrs	r3, r3, #8
 8001962:	704b      	strb	r3, [r1, #1]
 8001964:	88c3      	ldrh	r3, [r0, #6]
 8001966:	1d4a      	adds	r2, r1, #5
 8001968:	708b      	strb	r3, [r1, #2]
 800196a:	79c3      	ldrb	r3, [r0, #7]
 800196c:	4604      	mov	r4, r0
 800196e:	70cb      	strb	r3, [r1, #3]
 8001970:	2100      	movs	r1, #0
 8001972:	6866      	ldr	r6, [r4, #4]
 8001974:	008b      	lsls	r3, r1, #2
 8001976:	428e      	cmp	r6, r1
 8001978:	f102 0004 	add.w	r0, r2, #4
 800197c:	d823      	bhi.n	80019c6 <_ZNK14rosserial_msgs20RequestParamResponse9serializeEPh+0x72>
 800197e:	6921      	ldr	r1, [r4, #16]
 8001980:	3308      	adds	r3, #8
 8001982:	f802 1c01 	strb.w	r1, [r2, #-1]
 8001986:	6921      	ldr	r1, [r4, #16]
 8001988:	442b      	add	r3, r5
 800198a:	0a09      	lsrs	r1, r1, #8
 800198c:	7011      	strb	r1, [r2, #0]
 800198e:	8a61      	ldrh	r1, [r4, #18]
 8001990:	7051      	strb	r1, [r2, #1]
 8001992:	7ce1      	ldrb	r1, [r4, #19]
 8001994:	7091      	strb	r1, [r2, #2]
 8001996:	2100      	movs	r1, #0
 8001998:	6920      	ldr	r0, [r4, #16]
 800199a:	1d1a      	adds	r2, r3, #4
 800199c:	4288      	cmp	r0, r1
 800199e:	d823      	bhi.n	80019e8 <_ZNK14rosserial_msgs20RequestParamResponse9serializeEPh+0x94>
 80019a0:	2700      	movs	r7, #0
 80019a2:	69e2      	ldr	r2, [r4, #28]
 80019a4:	f1c5 0604 	rsb	r6, r5, #4
 80019a8:	701a      	strb	r2, [r3, #0]
 80019aa:	69e2      	ldr	r2, [r4, #28]
 80019ac:	441e      	add	r6, r3
 80019ae:	0a12      	lsrs	r2, r2, #8
 80019b0:	705a      	strb	r2, [r3, #1]
 80019b2:	8be2      	ldrh	r2, [r4, #30]
 80019b4:	709a      	strb	r2, [r3, #2]
 80019b6:	7fe2      	ldrb	r2, [r4, #31]
 80019b8:	70da      	strb	r2, [r3, #3]
 80019ba:	69e3      	ldr	r3, [r4, #28]
 80019bc:	42bb      	cmp	r3, r7
 80019be:	d824      	bhi.n	8001a0a <_ZNK14rosserial_msgs20RequestParamResponse9serializeEPh+0xb6>
 80019c0:	4630      	mov	r0, r6
 80019c2:	e8bd 81f0 	ldmia.w	sp!, {r4, r5, r6, r7, r8, pc}
 80019c6:	68e3      	ldr	r3, [r4, #12]
 80019c8:	f853 3021 	ldr.w	r3, [r3, r1, lsl #2]
 80019cc:	3101      	adds	r1, #1
 80019ce:	0a1a      	lsrs	r2, r3, #8
 80019d0:	f800 3c05 	strb.w	r3, [r0, #-5]
 80019d4:	f800 2c04 	strb.w	r2, [r0, #-4]
 80019d8:	0c1a      	lsrs	r2, r3, #16
 80019da:	0e1b      	lsrs	r3, r3, #24
 80019dc:	f800 2c03 	strb.w	r2, [r0, #-3]
 80019e0:	f800 3c02 	strb.w	r3, [r0, #-2]
 80019e4:	4602      	mov	r2, r0
 80019e6:	e7c4      	b.n	8001972 <_ZNK14rosserial_msgs20RequestParamResponse9serializeEPh+0x1e>
 80019e8:	69a3      	ldr	r3, [r4, #24]
 80019ea:	f853 3021 	ldr.w	r3, [r3, r1, lsl #2]
 80019ee:	3101      	adds	r1, #1
 80019f0:	0a18      	lsrs	r0, r3, #8
 80019f2:	f802 3c04 	strb.w	r3, [r2, #-4]
 80019f6:	f802 0c03 	strb.w	r0, [r2, #-3]
 80019fa:	0c18      	lsrs	r0, r3, #16
 80019fc:	0e1b      	lsrs	r3, r3, #24
 80019fe:	f802 3c01 	strb.w	r3, [r2, #-1]
 8001a02:	f802 0c02 	strb.w	r0, [r2, #-2]
 8001a06:	4613      	mov	r3, r2
 8001a08:	e7c6      	b.n	8001998 <_ZNK14rosserial_msgs20RequestParamResponse9serializeEPh+0x44>
 8001a0a:	6a63      	ldr	r3, [r4, #36]	@ 0x24
 8001a0c:	f853 0027 	ldr.w	r0, [r3, r7, lsl #2]
 8001a10:	f7fe fc08 	bl	8000224 <strlen>
 8001a14:	4680      	mov	r8, r0
 8001a16:	4601      	mov	r1, r0
 8001a18:	19a8      	adds	r0, r5, r6
 8001a1a:	f7ff ff93 	bl	8001944 <_ZN3ros3Msg8varToArrIPhmEEvT_T0_>
 8001a1e:	6a63      	ldr	r3, [r4, #36]	@ 0x24
 8001a20:	3604      	adds	r6, #4
 8001a22:	f853 1027 	ldr.w	r1, [r3, r7, lsl #2]
 8001a26:	19a8      	adds	r0, r5, r6
 8001a28:	4642      	mov	r2, r8
 8001a2a:	f002 fe8f 	bl	800474c <memcpy>
 8001a2e:	4446      	add	r6, r8
 8001a30:	3701      	adds	r7, #1
 8001a32:	e7c2      	b.n	80019ba <_ZNK14rosserial_msgs20RequestParamResponse9serializeEPh+0x66>

08001a34 <_ZNK14rosserial_msgs3Log9serializeEPh>:
 8001a34:	b5f8      	push	{r3, r4, r5, r6, r7, lr}
 8001a36:	460f      	mov	r7, r1
 8001a38:	7903      	ldrb	r3, [r0, #4]
 8001a3a:	4605      	mov	r5, r0
 8001a3c:	f807 3b01 	strb.w	r3, [r7], #1
 8001a40:	6880      	ldr	r0, [r0, #8]
 8001a42:	460e      	mov	r6, r1
 8001a44:	f7fe fbee 	bl	8000224 <strlen>
 8001a48:	4604      	mov	r4, r0
 8001a4a:	4601      	mov	r1, r0
 8001a4c:	4638      	mov	r0, r7
 8001a4e:	f7ff ff79 	bl	8001944 <_ZN3ros3Msg8varToArrIPhmEEvT_T0_>
 8001a52:	4622      	mov	r2, r4
 8001a54:	68a9      	ldr	r1, [r5, #8]
 8001a56:	1d70      	adds	r0, r6, #5
 8001a58:	f002 fe78 	bl	800474c <memcpy>
 8001a5c:	1d60      	adds	r0, r4, #5
 8001a5e:	bdf8      	pop	{r3, r4, r5, r6, r7, pc}

08001a60 <_ZNK14rosserial_msgs9TopicInfo9serializeEPh>:
 8001a60:	b5f8      	push	{r3, r4, r5, r6, r7, lr}
 8001a62:	8883      	ldrh	r3, [r0, #4]
 8001a64:	4606      	mov	r6, r0
 8001a66:	700b      	strb	r3, [r1, #0]
 8001a68:	8883      	ldrh	r3, [r0, #4]
 8001a6a:	460d      	mov	r5, r1
 8001a6c:	0a1b      	lsrs	r3, r3, #8
 8001a6e:	704b      	strb	r3, [r1, #1]
 8001a70:	6880      	ldr	r0, [r0, #8]
 8001a72:	f7fe fbd7 	bl	8000224 <strlen>
 8001a76:	4604      	mov	r4, r0
 8001a78:	4601      	mov	r1, r0
 8001a7a:	1ca8      	adds	r0, r5, #2
 8001a7c:	f7ff ff62 	bl	8001944 <_ZN3ros3Msg8varToArrIPhmEEvT_T0_>
 8001a80:	4622      	mov	r2, r4
 8001a82:	68b1      	ldr	r1, [r6, #8]
 8001a84:	1da8      	adds	r0, r5, #6
 8001a86:	f002 fe61 	bl	800474c <memcpy>
 8001a8a:	68f0      	ldr	r0, [r6, #12]
 8001a8c:	f7fe fbca 	bl	8000224 <strlen>
 8001a90:	4607      	mov	r7, r0
 8001a92:	1da0      	adds	r0, r4, #6
 8001a94:	4639      	mov	r1, r7
 8001a96:	4428      	add	r0, r5
 8001a98:	340a      	adds	r4, #10
 8001a9a:	f7ff ff53 	bl	8001944 <_ZN3ros3Msg8varToArrIPhmEEvT_T0_>
 8001a9e:	463a      	mov	r2, r7
 8001aa0:	68f1      	ldr	r1, [r6, #12]
 8001aa2:	1928      	adds	r0, r5, r4
 8001aa4:	f002 fe52 	bl	800474c <memcpy>
 8001aa8:	6930      	ldr	r0, [r6, #16]
 8001aaa:	f7fe fbbb 	bl	8000224 <strlen>
 8001aae:	443c      	add	r4, r7
 8001ab0:	4607      	mov	r7, r0
 8001ab2:	4601      	mov	r1, r0
 8001ab4:	1928      	adds	r0, r5, r4
 8001ab6:	3404      	adds	r4, #4
 8001ab8:	f7ff ff44 	bl	8001944 <_ZN3ros3Msg8varToArrIPhmEEvT_T0_>
 8001abc:	6931      	ldr	r1, [r6, #16]
 8001abe:	1928      	adds	r0, r5, r4
 8001ac0:	463a      	mov	r2, r7
 8001ac2:	f002 fe43 	bl	800474c <memcpy>
 8001ac6:	6973      	ldr	r3, [r6, #20]
 8001ac8:	19e0      	adds	r0, r4, r7
 8001aca:	542b      	strb	r3, [r5, r0]
 8001acc:	0a19      	lsrs	r1, r3, #8
 8001ace:	4405      	add	r5, r0
 8001ad0:	7069      	strb	r1, [r5, #1]
 8001ad2:	0c19      	lsrs	r1, r3, #16
 8001ad4:	0e1b      	lsrs	r3, r3, #24
 8001ad6:	70a9      	strb	r1, [r5, #2]
 8001ad8:	70eb      	strb	r3, [r5, #3]
 8001ada:	3004      	adds	r0, #4
 8001adc:	bdf8      	pop	{r3, r4, r5, r6, r7, pc}

08001ade <_ZN3ros3Msg8arrToVarImPhEEvRT_T0_>:
 8001ade:	2300      	movs	r3, #0
 8001ae0:	b510      	push	{r4, lr}
 8001ae2:	6003      	str	r3, [r0, #0]
 8001ae4:	3901      	subs	r1, #1
 8001ae6:	f811 4f01 	ldrb.w	r4, [r1, #1]!
 8001aea:	6802      	ldr	r2, [r0, #0]
 8001aec:	409c      	lsls	r4, r3
 8001aee:	3308      	adds	r3, #8
 8001af0:	4322      	orrs	r2, r4
 8001af2:	2b20      	cmp	r3, #32
 8001af4:	6002      	str	r2, [r0, #0]
 8001af6:	d1f6      	bne.n	8001ae6 <_ZN3ros3Msg8arrToVarImPhEEvRT_T0_+0x8>
 8001af8:	bd10      	pop	{r4, pc}

08001afa <_ZN14rosserial_msgs3Log11deserializeEPh>:
 8001afa:	b5f7      	push	{r0, r1, r2, r4, r5, r6, r7, lr}
 8001afc:	460c      	mov	r4, r1
 8001afe:	f811 3b01 	ldrb.w	r3, [r1], #1
 8001b02:	4605      	mov	r5, r0
 8001b04:	7103      	strb	r3, [r0, #4]
 8001b06:	a801      	add	r0, sp, #4
 8001b08:	f7ff ffe9 	bl	8001ade <_ZN3ros3Msg8arrToVarImPhEEvRT_T0_>
 8001b0c:	9e01      	ldr	r6, [sp, #4]
 8001b0e:	1d23      	adds	r3, r4, #4
 8001b10:	1d77      	adds	r7, r6, #5
 8001b12:	bf34      	ite	cc
 8001b14:	4632      	movcc	r2, r6
 8001b16:	2200      	movcs	r2, #0
 8001b18:	1d61      	adds	r1, r4, #5
 8001b1a:	4618      	mov	r0, r3
 8001b1c:	f002 fdb8 	bl	8004690 <memmove>
 8001b20:	2200      	movs	r2, #0
 8001b22:	4434      	add	r4, r6
 8001b24:	7122      	strb	r2, [r4, #4]
 8001b26:	60a8      	str	r0, [r5, #8]
 8001b28:	4638      	mov	r0, r7
 8001b2a:	b003      	add	sp, #12
 8001b2c:	bdf0      	pop	{r4, r5, r6, r7, pc}

08001b2e <_ZN14rosserial_msgs9TopicInfo11deserializeEPh>:
 8001b2e:	e92d 41ff 	stmdb	sp!, {r0, r1, r2, r3, r4, r5, r6, r7, r8, lr}
 8001b32:	460c      	mov	r4, r1
 8001b34:	780b      	ldrb	r3, [r1, #0]
 8001b36:	4607      	mov	r7, r0
 8001b38:	8083      	strh	r3, [r0, #4]
 8001b3a:	784a      	ldrb	r2, [r1, #1]
 8001b3c:	3102      	adds	r1, #2
 8001b3e:	ea43 2302 	orr.w	r3, r3, r2, lsl #8
 8001b42:	8083      	strh	r3, [r0, #4]
 8001b44:	a801      	add	r0, sp, #4
 8001b46:	f7ff ffca 	bl	8001ade <_ZN3ros3Msg8arrToVarImPhEEvRT_T0_>
 8001b4a:	9e01      	ldr	r6, [sp, #4]
 8001b4c:	1d63      	adds	r3, r4, #5
 8001b4e:	f116 0806 	adds.w	r8, r6, #6
 8001b52:	bf34      	ite	cc
 8001b54:	4632      	movcc	r2, r6
 8001b56:	2200      	movcs	r2, #0
 8001b58:	4618      	mov	r0, r3
 8001b5a:	1da1      	adds	r1, r4, #6
 8001b5c:	f002 fd98 	bl	8004690 <memmove>
 8001b60:	2500      	movs	r5, #0
 8001b62:	19a2      	adds	r2, r4, r6
 8001b64:	7155      	strb	r5, [r2, #5]
 8001b66:	eb04 0108 	add.w	r1, r4, r8
 8001b6a:	60b8      	str	r0, [r7, #8]
 8001b6c:	a802      	add	r0, sp, #8
 8001b6e:	f7ff ffb6 	bl	8001ade <_ZN3ros3Msg8arrToVarImPhEEvRT_T0_>
 8001b72:	462b      	mov	r3, r5
 8001b74:	9d02      	ldr	r5, [sp, #8]
 8001b76:	f106 010a 	add.w	r1, r6, #10
 8001b7a:	194d      	adds	r5, r1, r5
 8001b7c:	bf28      	it	cs
 8001b7e:	2301      	movcs	r3, #1
 8001b80:	f04f 0800 	mov.w	r8, #0
 8001b84:	1baa      	subs	r2, r5, r6
 8001b86:	3609      	adds	r6, #9
 8001b88:	2b00      	cmp	r3, #0
 8001b8a:	4426      	add	r6, r4
 8001b8c:	f1a2 020a 	sub.w	r2, r2, #10
 8001b90:	4421      	add	r1, r4
 8001b92:	bf18      	it	ne
 8001b94:	2200      	movne	r2, #0
 8001b96:	4630      	mov	r0, r6
 8001b98:	f002 fd7a 	bl	8004690 <memmove>
 8001b9c:	1961      	adds	r1, r4, r5
 8001b9e:	f801 8c01 	strb.w	r8, [r1, #-1]
 8001ba2:	a803      	add	r0, sp, #12
 8001ba4:	60fe      	str	r6, [r7, #12]
 8001ba6:	f7ff ff9a 	bl	8001ade <_ZN3ros3Msg8arrToVarImPhEEvRT_T0_>
 8001baa:	9e03      	ldr	r6, [sp, #12]
 8001bac:	1d29      	adds	r1, r5, #4
 8001bae:	1876      	adds	r6, r6, r1
 8001bb0:	bf28      	it	cs
 8001bb2:	f04f 0801 	movcs.w	r8, #1
 8001bb6:	1b72      	subs	r2, r6, r5
 8001bb8:	3503      	adds	r5, #3
 8001bba:	f1b8 0f00 	cmp.w	r8, #0
 8001bbe:	4425      	add	r5, r4
 8001bc0:	f1a2 0204 	sub.w	r2, r2, #4
 8001bc4:	4421      	add	r1, r4
 8001bc6:	bf18      	it	ne
 8001bc8:	2200      	movne	r2, #0
 8001bca:	4628      	mov	r0, r5
 8001bcc:	f002 fd60 	bl	8004690 <memmove>
 8001bd0:	2300      	movs	r3, #0
 8001bd2:	19a2      	adds	r2, r4, r6
 8001bd4:	f802 3c01 	strb.w	r3, [r2, #-1]
 8001bd8:	613d      	str	r5, [r7, #16]
 8001bda:	7893      	ldrb	r3, [r2, #2]
 8001bdc:	7851      	ldrb	r1, [r2, #1]
 8001bde:	041b      	lsls	r3, r3, #16
 8001be0:	ea43 2301 	orr.w	r3, r3, r1, lsl #8
 8001be4:	5da1      	ldrb	r1, [r4, r6]
 8001be6:	78d2      	ldrb	r2, [r2, #3]
 8001be8:	430b      	orrs	r3, r1
 8001bea:	ea43 6302 	orr.w	r3, r3, r2, lsl #24
 8001bee:	1d30      	adds	r0, r6, #4
 8001bf0:	617b      	str	r3, [r7, #20]
 8001bf2:	b004      	add	sp, #16
 8001bf4:	e8bd 81f0 	ldmia.w	sp!, {r4, r5, r6, r7, r8, pc}

08001bf8 <_ZN14rosserial_msgs20RequestParamResponse11deserializeEPh>:
 8001bf8:	e92d 47f3 	stmdb	sp!, {r0, r1, r4, r5, r6, r7, r8, r9, sl, lr}
 8001bfc:	6843      	ldr	r3, [r0, #4]
 8001bfe:	680d      	ldr	r5, [r1, #0]
 8001c00:	4604      	mov	r4, r0
 8001c02:	42ab      	cmp	r3, r5
 8001c04:	460e      	mov	r6, r1
 8001c06:	d204      	bcs.n	8001c12 <_ZN14rosserial_msgs20RequestParamResponse11deserializeEPh+0x1a>
 8001c08:	68c0      	ldr	r0, [r0, #12]
 8001c0a:	00a9      	lsls	r1, r5, #2
 8001c0c:	f002 fd0a 	bl	8004624 <realloc>
 8001c10:	60e0      	str	r0, [r4, #12]
 8001c12:	4633      	mov	r3, r6
 8001c14:	2200      	movs	r2, #0
 8001c16:	6065      	str	r5, [r4, #4]
 8001c18:	799d      	ldrb	r5, [r3, #6]
 8001c1a:	7959      	ldrb	r1, [r3, #5]
 8001c1c:	042d      	lsls	r5, r5, #16
 8001c1e:	ea45 2501 	orr.w	r5, r5, r1, lsl #8
 8001c22:	7919      	ldrb	r1, [r3, #4]
 8001c24:	0097      	lsls	r7, r2, #2
 8001c26:	430d      	orrs	r5, r1
 8001c28:	79d9      	ldrb	r1, [r3, #7]
 8001c2a:	3304      	adds	r3, #4
 8001c2c:	ea45 6501 	orr.w	r5, r5, r1, lsl #24
 8001c30:	6861      	ldr	r1, [r4, #4]
 8001c32:	4291      	cmp	r1, r2
 8001c34:	d831      	bhi.n	8001c9a <_ZN14rosserial_msgs20RequestParamResponse11deserializeEPh+0xa2>
 8001c36:	6923      	ldr	r3, [r4, #16]
 8001c38:	42ab      	cmp	r3, r5
 8001c3a:	d204      	bcs.n	8001c46 <_ZN14rosserial_msgs20RequestParamResponse11deserializeEPh+0x4e>
 8001c3c:	69a0      	ldr	r0, [r4, #24]
 8001c3e:	00a9      	lsls	r1, r5, #2
 8001c40:	f002 fcf0 	bl	8004624 <realloc>
 8001c44:	61a0      	str	r0, [r4, #24]
 8001c46:	2300      	movs	r3, #0
 8001c48:	3708      	adds	r7, #8
 8001c4a:	6125      	str	r5, [r4, #16]
 8001c4c:	4437      	add	r7, r6
 8001c4e:	78bd      	ldrb	r5, [r7, #2]
 8001c50:	787a      	ldrb	r2, [r7, #1]
 8001c52:	042d      	lsls	r5, r5, #16
 8001c54:	ea45 2502 	orr.w	r5, r5, r2, lsl #8
 8001c58:	783a      	ldrb	r2, [r7, #0]
 8001c5a:	1d39      	adds	r1, r7, #4
 8001c5c:	4315      	orrs	r5, r2
 8001c5e:	78fa      	ldrb	r2, [r7, #3]
 8001c60:	ea45 6502 	orr.w	r5, r5, r2, lsl #24
 8001c64:	6922      	ldr	r2, [r4, #16]
 8001c66:	429a      	cmp	r2, r3
 8001c68:	d81d      	bhi.n	8001ca6 <_ZN14rosserial_msgs20RequestParamResponse11deserializeEPh+0xae>
 8001c6a:	69e3      	ldr	r3, [r4, #28]
 8001c6c:	42ab      	cmp	r3, r5
 8001c6e:	d204      	bcs.n	8001c7a <_ZN14rosserial_msgs20RequestParamResponse11deserializeEPh+0x82>
 8001c70:	6a60      	ldr	r0, [r4, #36]	@ 0x24
 8001c72:	00a9      	lsls	r1, r5, #2
 8001c74:	f002 fcd6 	bl	8004624 <realloc>
 8001c78:	6260      	str	r0, [r4, #36]	@ 0x24
 8001c7a:	f04f 0800 	mov.w	r8, #0
 8001c7e:	f06f 0903 	mvn.w	r9, #3
 8001c82:	46c2      	mov	sl, r8
 8001c84:	f1c6 0304 	rsb	r3, r6, #4
 8001c88:	441f      	add	r7, r3
 8001c8a:	61e5      	str	r5, [r4, #28]
 8001c8c:	69e3      	ldr	r3, [r4, #28]
 8001c8e:	4543      	cmp	r3, r8
 8001c90:	d810      	bhi.n	8001cb4 <_ZN14rosserial_msgs20RequestParamResponse11deserializeEPh+0xbc>
 8001c92:	4638      	mov	r0, r7
 8001c94:	b002      	add	sp, #8
 8001c96:	e8bd 87f0 	ldmia.w	sp!, {r4, r5, r6, r7, r8, r9, sl, pc}
 8001c9a:	68e1      	ldr	r1, [r4, #12]
 8001c9c:	60a5      	str	r5, [r4, #8]
 8001c9e:	f841 5022 	str.w	r5, [r1, r2, lsl #2]
 8001ca2:	3201      	adds	r2, #1
 8001ca4:	e7b8      	b.n	8001c18 <_ZN14rosserial_msgs20RequestParamResponse11deserializeEPh+0x20>
 8001ca6:	69a2      	ldr	r2, [r4, #24]
 8001ca8:	6165      	str	r5, [r4, #20]
 8001caa:	460f      	mov	r7, r1
 8001cac:	f842 5023 	str.w	r5, [r2, r3, lsl #2]
 8001cb0:	3301      	adds	r3, #1
 8001cb2:	e7cc      	b.n	8001c4e <_ZN14rosserial_msgs20RequestParamResponse11deserializeEPh+0x56>
 8001cb4:	19f1      	adds	r1, r6, r7
 8001cb6:	a801      	add	r0, sp, #4
 8001cb8:	f7ff ff11 	bl	8001ade <_ZN3ros3Msg8arrToVarImPhEEvRT_T0_>
 8001cbc:	9d01      	ldr	r5, [sp, #4]
 8001cbe:	1d39      	adds	r1, r7, #4
 8001cc0:	1cfb      	adds	r3, r7, #3
 8001cc2:	186d      	adds	r5, r5, r1
 8001cc4:	eba9 0207 	sub.w	r2, r9, r7
 8001cc8:	4433      	add	r3, r6
 8001cca:	442a      	add	r2, r5
 8001ccc:	4618      	mov	r0, r3
 8001cce:	bf28      	it	cs
 8001cd0:	2200      	movcs	r2, #0
 8001cd2:	4431      	add	r1, r6
 8001cd4:	f002 fcdc 	bl	8004690 <memmove>
 8001cd8:	1972      	adds	r2, r6, r5
 8001cda:	f802 ac01 	strb.w	sl, [r2, #-1]
 8001cde:	6a62      	ldr	r2, [r4, #36]	@ 0x24
 8001ce0:	6220      	str	r0, [r4, #32]
 8001ce2:	462f      	mov	r7, r5
 8001ce4:	f842 0028 	str.w	r0, [r2, r8, lsl #2]
 8001ce8:	f108 0801 	add.w	r8, r8, #1
 8001cec:	e7ce      	b.n	8001c8c <_ZN14rosserial_msgs20RequestParamResponse11deserializeEPh+0x94>
	...

08001cf0 <_ZN3ros11NodeHandle_I13STM32HardwareLi10ELi10ELi4096ELi4096EE15requestSyncTimeEv>:
 8001cf0:	b51f      	push	{r0, r1, r2, r3, r4, lr}
 8001cf2:	4b08      	ldr	r3, [pc, #32]	@ (8001d14 <_ZN3ros11NodeHandle_I13STM32HardwareLi10ELi10ELi4096ELi4096EE15requestSyncTimeEv+0x24>)
 8001cf4:	210a      	movs	r1, #10
 8001cf6:	9301      	str	r3, [sp, #4]
 8001cf8:	2300      	movs	r3, #0
 8001cfa:	e9cd 3302 	strd	r3, r3, [sp, #8]
 8001cfe:	6803      	ldr	r3, [r0, #0]
 8001d00:	aa01      	add	r2, sp, #4
 8001d02:	681b      	ldr	r3, [r3, #0]
 8001d04:	4604      	mov	r4, r0
 8001d06:	4798      	blx	r3
 8001d08:	f000 fc9c 	bl	8002644 <HAL_GetTick>
 8001d0c:	60a0      	str	r0, [r4, #8]
 8001d0e:	b004      	add	sp, #16
 8001d10:	bd10      	pop	{r4, pc}
 8001d12:	bf00      	nop
 8001d14:	08004a08 	.word	0x08004a08

08001d18 <_ZN3ros11NodeHandle_I13STM32HardwareLi10ELi10ELi4096ELi4096EE15negotiateTopicsEv>:
 8001d18:	e92d 41f0 	stmdb	sp!, {r4, r5, r6, r7, r8, lr}
 8001d1c:	4b2d      	ldr	r3, [pc, #180]	@ (8001dd4 <_ZN3ros11NodeHandle_I13STM32HardwareLi10ELi10ELi4096ELi4096EE15negotiateTopicsEv+0xbc>)
 8001d1e:	b086      	sub	sp, #24
 8001d20:	9300      	str	r3, [sp, #0]
 8001d22:	4b2d      	ldr	r3, [pc, #180]	@ (8001dd8 <_ZN3ros11NodeHandle_I13STM32HardwareLi10ELi10ELi4096ELi4096EE15negotiateTopicsEv+0xc0>)
 8001d24:	4605      	mov	r5, r0
 8001d26:	e9cd 3302 	strd	r3, r3, [sp, #8]
 8001d2a:	9304      	str	r3, [sp, #16]
 8001d2c:	2300      	movs	r3, #0
 8001d2e:	f44f 5780 	mov.w	r7, #4096	@ 0x1000
 8001d32:	f500 5400 	add.w	r4, r0, #8192	@ 0x2000
 8001d36:	f500 5600 	add.w	r6, r0, #8192	@ 0x2000
 8001d3a:	9305      	str	r3, [sp, #20]
 8001d3c:	3414      	adds	r4, #20
 8001d3e:	363c      	adds	r6, #60	@ 0x3c
 8001d40:	f854 3f04 	ldr.w	r3, [r4, #4]!
 8001d44:	b1bb      	cbz	r3, 8001d76 <_ZN3ros11NodeHandle_I13STM32HardwareLi10ELi10ELi4096ELi4096EE15negotiateTopicsEv+0x5e>
 8001d46:	689a      	ldr	r2, [r3, #8]
 8001d48:	6858      	ldr	r0, [r3, #4]
 8001d4a:	f8ad 2004 	strh.w	r2, [sp, #4]
 8001d4e:	681a      	ldr	r2, [r3, #0]
 8001d50:	6803      	ldr	r3, [r0, #0]
 8001d52:	9202      	str	r2, [sp, #8]
 8001d54:	689b      	ldr	r3, [r3, #8]
 8001d56:	4798      	blx	r3
 8001d58:	6823      	ldr	r3, [r4, #0]
 8001d5a:	9003      	str	r0, [sp, #12]
 8001d5c:	6858      	ldr	r0, [r3, #4]
 8001d5e:	6803      	ldr	r3, [r0, #0]
 8001d60:	68db      	ldr	r3, [r3, #12]
 8001d62:	4798      	blx	r3
 8001d64:	6821      	ldr	r1, [r4, #0]
 8001d66:	682b      	ldr	r3, [r5, #0]
 8001d68:	e9cd 0704 	strd	r0, r7, [sp, #16]
 8001d6c:	466a      	mov	r2, sp
 8001d6e:	4628      	mov	r0, r5
 8001d70:	681b      	ldr	r3, [r3, #0]
 8001d72:	6909      	ldr	r1, [r1, #16]
 8001d74:	4798      	blx	r3
 8001d76:	42b4      	cmp	r4, r6
 8001d78:	d1e2      	bne.n	8001d40 <_ZN3ros11NodeHandle_I13STM32HardwareLi10ELi10ELi4096ELi4096EE15negotiateTopicsEv+0x28>
 8001d7a:	f44f 5780 	mov.w	r7, #4096	@ 0x1000
 8001d7e:	f505 5601 	add.w	r6, r5, #8256	@ 0x2040
 8001d82:	3624      	adds	r6, #36	@ 0x24
 8001d84:	f854 0f04 	ldr.w	r0, [r4, #4]!
 8001d88:	b1c8      	cbz	r0, 8001dbe <_ZN3ros11NodeHandle_I13STM32HardwareLi10ELi10ELi4096ELi4096EE15negotiateTopicsEv+0xa6>
 8001d8a:	6843      	ldr	r3, [r0, #4]
 8001d8c:	f8ad 3004 	strh.w	r3, [sp, #4]
 8001d90:	6883      	ldr	r3, [r0, #8]
 8001d92:	9302      	str	r3, [sp, #8]
 8001d94:	6803      	ldr	r3, [r0, #0]
 8001d96:	689b      	ldr	r3, [r3, #8]
 8001d98:	4798      	blx	r3
 8001d9a:	9003      	str	r0, [sp, #12]
 8001d9c:	6820      	ldr	r0, [r4, #0]
 8001d9e:	6803      	ldr	r3, [r0, #0]
 8001da0:	68db      	ldr	r3, [r3, #12]
 8001da2:	4798      	blx	r3
 8001da4:	682b      	ldr	r3, [r5, #0]
 8001da6:	e9cd 0704 	strd	r0, r7, [sp, #16]
 8001daa:	6820      	ldr	r0, [r4, #0]
 8001dac:	f8d3 8000 	ldr.w	r8, [r3]
 8001db0:	6803      	ldr	r3, [r0, #0]
 8001db2:	685b      	ldr	r3, [r3, #4]
 8001db4:	4798      	blx	r3
 8001db6:	466a      	mov	r2, sp
 8001db8:	4601      	mov	r1, r0
 8001dba:	4628      	mov	r0, r5
 8001dbc:	47c0      	blx	r8
 8001dbe:	42b4      	cmp	r4, r6
 8001dc0:	d1e0      	bne.n	8001d84 <_ZN3ros11NodeHandle_I13STM32HardwareLi10ELi10ELi4096ELi4096EE15negotiateTopicsEv+0x6c>
 8001dc2:	2301      	movs	r3, #1
 8001dc4:	f505 5000 	add.w	r0, r5, #8192	@ 0x2000
 8001dc8:	f880 307c 	strb.w	r3, [r0, #124]	@ 0x7c
 8001dcc:	b006      	add	sp, #24
 8001dce:	e8bd 81f0 	ldmia.w	sp!, {r4, r5, r6, r7, r8, pc}
 8001dd2:	bf00      	nop
 8001dd4:	08004a20 	.word	0x08004a20
 8001dd8:	080049b9 	.word	0x080049b9

08001ddc <_ZN3ros11NodeHandle_I13STM32HardwareLi10ELi10ELi4096ELi4096EE8syncTimeEPh>:
 8001ddc:	b5f0      	push	{r4, r5, r6, r7, lr}
 8001dde:	4b1c      	ldr	r3, [pc, #112]	@ (8001e50 <_ZN3ros11NodeHandle_I13STM32HardwareLi10ELi10ELi4096ELi4096EE8syncTimeEPh+0x74>)
 8001de0:	b085      	sub	sp, #20
 8001de2:	9301      	str	r3, [sp, #4]
 8001de4:	2300      	movs	r3, #0
 8001de6:	4604      	mov	r4, r0
 8001de8:	460d      	mov	r5, r1
 8001dea:	e9cd 3302 	strd	r3, r3, [sp, #8]
 8001dee:	f000 fc29 	bl	8002644 <HAL_GetTick>
 8001df2:	68a3      	ldr	r3, [r4, #8]
 8001df4:	4629      	mov	r1, r5
 8001df6:	1ac7      	subs	r7, r0, r3
 8001df8:	a801      	add	r0, sp, #4
 8001dfa:	f7ff fb25 	bl	8001448 <_ZN8std_msgs4Time11deserializeEPh>
 8001dfe:	9b02      	ldr	r3, [sp, #8]
 8001e00:	4d14      	ldr	r5, [pc, #80]	@ (8001e54 <_ZN3ros11NodeHandle_I13STM32HardwareLi10ELi10ELi4096ELi4096EE8syncTimeEPh+0x78>)
 8001e02:	1e5e      	subs	r6, r3, #1
 8001e04:	9b03      	ldr	r3, [sp, #12]
 8001e06:	441d      	add	r5, r3
 8001e08:	f000 fc1c 	bl	8002644 <HAL_GetTick>
 8001e0c:	f44f 727a 	mov.w	r2, #1000	@ 0x3e8
 8001e10:	fbb7 fcf2 	udiv	ip, r7, r2
 8001e14:	fbb0 f1f2 	udiv	r1, r0, r2
 8001e18:	eb0c 0306 	add.w	r3, ip, r6
 8001e1c:	fb02 0011 	mls	r0, r2, r1, r0
 8001e20:	1a5b      	subs	r3, r3, r1
 8001e22:	4621      	mov	r1, r4
 8001e24:	fb02 771c 	mls	r7, r2, ip, r7
 8001e28:	60e3      	str	r3, [r4, #12]
 8001e2a:	4b0b      	ldr	r3, [pc, #44]	@ (8001e58 <_ZN3ros11NodeHandle_I13STM32HardwareLi10ELi10ELi4096ELi4096EE8syncTimeEPh+0x7c>)
 8001e2c:	fb03 5507 	mla	r5, r3, r7, r5
 8001e30:	fb03 5510 	mls	r5, r3, r0, r5
 8001e34:	f104 000c 	add.w	r0, r4, #12
 8001e38:	f841 5f10 	str.w	r5, [r1, #16]!
 8001e3c:	f000 fb8c 	bl	8002558 <_ZN3ros16normalizeSecNSecERmS0_>
 8001e40:	f000 fc00 	bl	8002644 <HAL_GetTick>
 8001e44:	f504 5400 	add.w	r4, r4, #8192	@ 0x2000
 8001e48:	f8c4 0084 	str.w	r0, [r4, #132]	@ 0x84
 8001e4c:	b005      	add	sp, #20
 8001e4e:	bdf0      	pop	{r4, r5, r6, r7, pc}
 8001e50:	08004a08 	.word	0x08004a08
 8001e54:	3b9aca00 	.word	0x3b9aca00
 8001e58:	000f4240 	.word	0x000f4240

08001e5c <_ZN3ros11NodeHandle_I13STM32HardwareLi10ELi10ELi4096ELi4096EE8spinOnceEv>:
 8001e5c:	e92d 43f8 	stmdb	sp!, {r3, r4, r5, r6, r7, r8, r9, lr}
 8001e60:	4605      	mov	r5, r0
 8001e62:	f000 fbef 	bl	8002644 <HAL_GetTick>
 8001e66:	f642 22f8 	movw	r2, #11000	@ 0x2af8
 8001e6a:	f505 5400 	add.w	r4, r5, #8192	@ 0x2000
 8001e6e:	f8d4 3084 	ldr.w	r3, [r4, #132]	@ 0x84
 8001e72:	4606      	mov	r6, r0
 8001e74:	1ac3      	subs	r3, r0, r3
 8001e76:	4293      	cmp	r3, r2
 8001e78:	bf84      	itt	hi
 8001e7a:	2300      	movhi	r3, #0
 8001e7c:	f884 307c 	strbhi.w	r3, [r4, #124]	@ 0x7c
 8001e80:	6ea3      	ldr	r3, [r4, #104]	@ 0x68
 8001e82:	b12b      	cbz	r3, 8001e90 <_ZN3ros11NodeHandle_I13STM32HardwareLi10ELi10ELi4096ELi4096EE8spinOnceEv+0x34>
 8001e84:	f8d4 3088 	ldr.w	r3, [r4, #136]	@ 0x88
 8001e88:	4283      	cmp	r3, r0
 8001e8a:	bf3c      	itt	cc
 8001e8c:	2300      	movcc	r3, #0
 8001e8e:	66a3      	strcc	r3, [r4, #104]	@ 0x68
 8001e90:	f241 0904 	movw	r9, #4100	@ 0x1004
 8001e94:	2700      	movs	r7, #0
 8001e96:	f8df 81b8 	ldr.w	r8, [pc, #440]	@ 8002050 <_ZN3ros11NodeHandle_I13STM32HardwareLi10ELi10ELi4096ELi4096EE8spinOnceEv+0x1f4>
 8001e9a:	696b      	ldr	r3, [r5, #20]
 8001e9c:	b99b      	cbnz	r3, 8001ec6 <_ZN3ros11NodeHandle_I13STM32HardwareLi10ELi10ELi4096ELi4096EE8spinOnceEv+0x6a>
 8001e9e:	686b      	ldr	r3, [r5, #4]
 8001ea0:	681a      	ldr	r2, [r3, #0]
 8001ea2:	f503 5000 	add.w	r0, r3, #8192	@ 0x2000
 8001ea6:	6bd2      	ldr	r2, [r2, #60]	@ 0x3c
 8001ea8:	6812      	ldr	r2, [r2, #0]
 8001eaa:	6851      	ldr	r1, [r2, #4]
 8001eac:	8942      	ldrh	r2, [r0, #10]
 8001eae:	4249      	negs	r1, r1
 8001eb0:	f3c1 010b 	ubfx	r1, r1, #0, #12
 8001eb4:	4291      	cmp	r1, r2
 8001eb6:	d10f      	bne.n	8001ed8 <_ZN3ros11NodeHandle_I13STM32HardwareLi10ELi10ELi4096ELi4096EE8spinOnceEv+0x7c>
 8001eb8:	f894 307c 	ldrb.w	r3, [r4, #124]	@ 0x7c
 8001ebc:	2b00      	cmp	r3, #0
 8001ebe:	f040 80b8 	bne.w	8002032 <_ZN3ros11NodeHandle_I13STM32HardwareLi10ELi10ELi4096ELi4096EE8spinOnceEv+0x1d6>
 8001ec2:	2000      	movs	r0, #0
 8001ec4:	e08c      	b.n	8001fe0 <_ZN3ros11NodeHandle_I13STM32HardwareLi10ELi10ELi4096ELi4096EE8spinOnceEv+0x184>
 8001ec6:	f000 fbbd 	bl	8002644 <HAL_GetTick>
 8001eca:	696b      	ldr	r3, [r5, #20]
 8001ecc:	1b80      	subs	r0, r0, r6
 8001ece:	4298      	cmp	r0, r3
 8001ed0:	d9e5      	bls.n	8001e9e <_ZN3ros11NodeHandle_I13STM32HardwareLi10ELi10ELi4096ELi4096EE8spinOnceEv+0x42>
 8001ed2:	f06f 0001 	mvn.w	r0, #1
 8001ed6:	e083      	b.n	8001fe0 <_ZN3ros11NodeHandle_I13STM32HardwareLi10ELi10ELi4096ELi4096EE8spinOnceEv+0x184>
 8001ed8:	4413      	add	r3, r2
 8001eda:	3201      	adds	r2, #1
 8001edc:	f3c2 020b 	ubfx	r2, r2, #0, #12
 8001ee0:	f813 3009 	ldrb.w	r3, [r3, r9]
 8001ee4:	6ea1      	ldr	r1, [r4, #104]	@ 0x68
 8001ee6:	8142      	strh	r2, [r0, #10]
 8001ee8:	6fa2      	ldr	r2, [r4, #120]	@ 0x78
 8001eea:	2907      	cmp	r1, #7
 8001eec:	441a      	add	r2, r3
 8001eee:	67a2      	str	r2, [r4, #120]	@ 0x78
 8001ef0:	d10c      	bne.n	8001f0c <_ZN3ros11NodeHandle_I13STM32HardwareLi10ELi10ELi4096ELi4096EE8spinOnceEv+0xb0>
 8001ef2:	6f62      	ldr	r2, [r4, #116]	@ 0x74
 8001ef4:	1c51      	adds	r1, r2, #1
 8001ef6:	442a      	add	r2, r5
 8001ef8:	6761      	str	r1, [r4, #116]	@ 0x74
 8001efa:	7613      	strb	r3, [r2, #24]
 8001efc:	6ee3      	ldr	r3, [r4, #108]	@ 0x6c
 8001efe:	3b01      	subs	r3, #1
 8001f00:	66e3      	str	r3, [r4, #108]	@ 0x6c
 8001f02:	2b00      	cmp	r3, #0
 8001f04:	d1c9      	bne.n	8001e9a <_ZN3ros11NodeHandle_I13STM32HardwareLi10ELi10ELi4096ELi4096EE8spinOnceEv+0x3e>
 8001f06:	2308      	movs	r3, #8
 8001f08:	66a3      	str	r3, [r4, #104]	@ 0x68
 8001f0a:	e7c6      	b.n	8001e9a <_ZN3ros11NodeHandle_I13STM32HardwareLi10ELi10ELi4096ELi4096EE8spinOnceEv+0x3e>
 8001f0c:	2908      	cmp	r1, #8
 8001f0e:	d8c4      	bhi.n	8001e9a <_ZN3ros11NodeHandle_I13STM32HardwareLi10ELi10ELi4096ELi4096EE8spinOnceEv+0x3e>
 8001f10:	a001      	add	r0, pc, #4	@ (adr r0, 8001f18 <_ZN3ros11NodeHandle_I13STM32HardwareLi10ELi10ELi4096ELi4096EE8spinOnceEv+0xbc>)
 8001f12:	f850 f021 	ldr.w	pc, [r0, r1, lsl #2]
 8001f16:	bf00      	nop
 8001f18:	08001f3d 	.word	0x08001f3d
 8001f1c:	08001f65 	.word	0x08001f65
 8001f20:	08001f7f 	.word	0x08001f7f
 8001f24:	08001f8b 	.word	0x08001f8b
 8001f28:	08001f97 	.word	0x08001f97
 8001f2c:	08001fa7 	.word	0x08001fa7
 8001f30:	08001fad 	.word	0x08001fad
 8001f34:	08001e9b 	.word	0x08001e9b
 8001f38:	08001fbd 	.word	0x08001fbd
 8001f3c:	2bff      	cmp	r3, #255	@ 0xff
 8001f3e:	d106      	bne.n	8001f4e <_ZN3ros11NodeHandle_I13STM32HardwareLi10ELi10ELi4096ELi4096EE8spinOnceEv+0xf2>
 8001f40:	2301      	movs	r3, #1
 8001f42:	66a3      	str	r3, [r4, #104]	@ 0x68
 8001f44:	f106 0314 	add.w	r3, r6, #20
 8001f48:	f8c4 3088 	str.w	r3, [r4, #136]	@ 0x88
 8001f4c:	e7a5      	b.n	8001e9a <_ZN3ros11NodeHandle_I13STM32HardwareLi10ELi10ELi4096ELi4096EE8spinOnceEv+0x3e>
 8001f4e:	f000 fb79 	bl	8002644 <HAL_GetTick>
 8001f52:	f241 3388 	movw	r3, #5000	@ 0x1388
 8001f56:	1b80      	subs	r0, r0, r6
 8001f58:	4298      	cmp	r0, r3
 8001f5a:	d99e      	bls.n	8001e9a <_ZN3ros11NodeHandle_I13STM32HardwareLi10ELi10ELi4096ELi4096EE8spinOnceEv+0x3e>
 8001f5c:	2300      	movs	r3, #0
 8001f5e:	f884 307c 	strb.w	r3, [r4, #124]	@ 0x7c
 8001f62:	e7b6      	b.n	8001ed2 <_ZN3ros11NodeHandle_I13STM32HardwareLi10ELi10ELi4096ELi4096EE8spinOnceEv+0x76>
 8001f64:	2bfe      	cmp	r3, #254	@ 0xfe
 8001f66:	d101      	bne.n	8001f6c <_ZN3ros11NodeHandle_I13STM32HardwareLi10ELi10ELi4096ELi4096EE8spinOnceEv+0x110>
 8001f68:	2302      	movs	r3, #2
 8001f6a:	e7cd      	b.n	8001f08 <_ZN3ros11NodeHandle_I13STM32HardwareLi10ELi10ELi4096ELi4096EE8spinOnceEv+0xac>
 8001f6c:	f894 307c 	ldrb.w	r3, [r4, #124]	@ 0x7c
 8001f70:	66a7      	str	r7, [r4, #104]	@ 0x68
 8001f72:	2b00      	cmp	r3, #0
 8001f74:	d191      	bne.n	8001e9a <_ZN3ros11NodeHandle_I13STM32HardwareLi10ELi10ELi4096ELi4096EE8spinOnceEv+0x3e>
 8001f76:	4628      	mov	r0, r5
 8001f78:	f7ff feba 	bl	8001cf0 <_ZN3ros11NodeHandle_I13STM32HardwareLi10ELi10ELi4096ELi4096EE15requestSyncTimeEv>
 8001f7c:	e78d      	b.n	8001e9a <_ZN3ros11NodeHandle_I13STM32HardwareLi10ELi10ELi4096ELi4096EE8spinOnceEv+0x3e>
 8001f7e:	2203      	movs	r2, #3
 8001f80:	66e3      	str	r3, [r4, #108]	@ 0x6c
 8001f82:	6767      	str	r7, [r4, #116]	@ 0x74
 8001f84:	66a2      	str	r2, [r4, #104]	@ 0x68
 8001f86:	67a3      	str	r3, [r4, #120]	@ 0x78
 8001f88:	e787      	b.n	8001e9a <_ZN3ros11NodeHandle_I13STM32HardwareLi10ELi10ELi4096ELi4096EE8spinOnceEv+0x3e>
 8001f8a:	6ee2      	ldr	r2, [r4, #108]	@ 0x6c
 8001f8c:	eb02 2203 	add.w	r2, r2, r3, lsl #8
 8001f90:	66e2      	str	r2, [r4, #108]	@ 0x6c
 8001f92:	2304      	movs	r3, #4
 8001f94:	e7b8      	b.n	8001f08 <_ZN3ros11NodeHandle_I13STM32HardwareLi10ELi10ELi4096ELi4096EE8spinOnceEv+0xac>
 8001f96:	ea02 0208 	and.w	r2, r2, r8
 8001f9a:	2aff      	cmp	r2, #255	@ 0xff
 8001f9c:	d101      	bne.n	8001fa2 <_ZN3ros11NodeHandle_I13STM32HardwareLi10ELi10ELi4096ELi4096EE8spinOnceEv+0x146>
 8001f9e:	2305      	movs	r3, #5
 8001fa0:	e7b2      	b.n	8001f08 <_ZN3ros11NodeHandle_I13STM32HardwareLi10ELi10ELi4096ELi4096EE8spinOnceEv+0xac>
 8001fa2:	66a7      	str	r7, [r4, #104]	@ 0x68
 8001fa4:	e779      	b.n	8001e9a <_ZN3ros11NodeHandle_I13STM32HardwareLi10ELi10ELi4096ELi4096EE8spinOnceEv+0x3e>
 8001fa6:	2206      	movs	r2, #6
 8001fa8:	6723      	str	r3, [r4, #112]	@ 0x70
 8001faa:	e7eb      	b.n	8001f84 <_ZN3ros11NodeHandle_I13STM32HardwareLi10ELi10ELi4096ELi4096EE8spinOnceEv+0x128>
 8001fac:	6f22      	ldr	r2, [r4, #112]	@ 0x70
 8001fae:	eb02 2203 	add.w	r2, r2, r3, lsl #8
 8001fb2:	2307      	movs	r3, #7
 8001fb4:	6722      	str	r2, [r4, #112]	@ 0x70
 8001fb6:	66a3      	str	r3, [r4, #104]	@ 0x68
 8001fb8:	6ee3      	ldr	r3, [r4, #108]	@ 0x6c
 8001fba:	e7a2      	b.n	8001f02 <_ZN3ros11NodeHandle_I13STM32HardwareLi10ELi10ELi4096ELi4096EE8spinOnceEv+0xa6>
 8001fbc:	ea02 0208 	and.w	r2, r2, r8
 8001fc0:	2aff      	cmp	r2, #255	@ 0xff
 8001fc2:	66a7      	str	r7, [r4, #104]	@ 0x68
 8001fc4:	f47f af69 	bne.w	8001e9a <_ZN3ros11NodeHandle_I13STM32HardwareLi10ELi10ELi4096ELi4096EE8spinOnceEv+0x3e>
 8001fc8:	6f23      	ldr	r3, [r4, #112]	@ 0x70
 8001fca:	b95b      	cbnz	r3, 8001fe4 <_ZN3ros11NodeHandle_I13STM32HardwareLi10ELi10ELi4096ELi4096EE8spinOnceEv+0x188>
 8001fcc:	4628      	mov	r0, r5
 8001fce:	f7ff fe8f 	bl	8001cf0 <_ZN3ros11NodeHandle_I13STM32HardwareLi10ELi10ELi4096ELi4096EE15requestSyncTimeEv>
 8001fd2:	4628      	mov	r0, r5
 8001fd4:	f7ff fea0 	bl	8001d18 <_ZN3ros11NodeHandle_I13STM32HardwareLi10ELi10ELi4096ELi4096EE15negotiateTopicsEv>
 8001fd8:	f04f 30ff 	mov.w	r0, #4294967295
 8001fdc:	e9c4 6620 	strd	r6, r6, [r4, #128]	@ 0x80
 8001fe0:	e8bd 83f8 	ldmia.w	sp!, {r3, r4, r5, r6, r7, r8, r9, pc}
 8001fe4:	2b0a      	cmp	r3, #10
 8001fe6:	d105      	bne.n	8001ff4 <_ZN3ros11NodeHandle_I13STM32HardwareLi10ELi10ELi4096ELi4096EE8spinOnceEv+0x198>
 8001fe8:	4628      	mov	r0, r5
 8001fea:	f105 0118 	add.w	r1, r5, #24
 8001fee:	f7ff fef5 	bl	8001ddc <_ZN3ros11NodeHandle_I13STM32HardwareLi10ELi10ELi4096ELi4096EE8syncTimeEPh>
 8001ff2:	e752      	b.n	8001e9a <_ZN3ros11NodeHandle_I13STM32HardwareLi10ELi10ELi4096ELi4096EE8spinOnceEv+0x3e>
 8001ff4:	2b06      	cmp	r3, #6
 8001ff6:	d10a      	bne.n	800200e <_ZN3ros11NodeHandle_I13STM32HardwareLi10ELi10ELi4096ELi4096EE8spinOnceEv+0x1b2>
 8001ff8:	f505 5002 	add.w	r0, r5, #8320	@ 0x2080
 8001ffc:	f105 0118 	add.w	r1, r5, #24
 8002000:	3010      	adds	r0, #16
 8002002:	f7ff fdf9 	bl	8001bf8 <_ZN14rosserial_msgs20RequestParamResponse11deserializeEPh>
 8002006:	2301      	movs	r3, #1
 8002008:	f884 308c 	strb.w	r3, [r4, #140]	@ 0x8c
 800200c:	e745      	b.n	8001e9a <_ZN3ros11NodeHandle_I13STM32HardwareLi10ELi10ELi4096ELi4096EE8spinOnceEv+0x3e>
 800200e:	2b0b      	cmp	r3, #11
 8002010:	d102      	bne.n	8002018 <_ZN3ros11NodeHandle_I13STM32HardwareLi10ELi10ELi4096ELi4096EE8spinOnceEv+0x1bc>
 8002012:	f884 707c 	strb.w	r7, [r4, #124]	@ 0x7c
 8002016:	e740      	b.n	8001e9a <_ZN3ros11NodeHandle_I13STM32HardwareLi10ELi10ELi4096ELi4096EE8spinOnceEv+0x3e>
 8002018:	f203 73ac 	addw	r3, r3, #1964	@ 0x7ac
 800201c:	f855 0023 	ldr.w	r0, [r5, r3, lsl #2]
 8002020:	2800      	cmp	r0, #0
 8002022:	f43f af3a 	beq.w	8001e9a <_ZN3ros11NodeHandle_I13STM32HardwareLi10ELi10ELi4096ELi4096EE8spinOnceEv+0x3e>
 8002026:	6803      	ldr	r3, [r0, #0]
 8002028:	f105 0118 	add.w	r1, r5, #24
 800202c:	681b      	ldr	r3, [r3, #0]
 800202e:	4798      	blx	r3
 8002030:	e733      	b.n	8001e9a <_ZN3ros11NodeHandle_I13STM32HardwareLi10ELi10ELi4096ELi4096EE8spinOnceEv+0x3e>
 8002032:	f640 12c4 	movw	r2, #2500	@ 0x9c4
 8002036:	f8d4 3080 	ldr.w	r3, [r4, #128]	@ 0x80
 800203a:	1af3      	subs	r3, r6, r3
 800203c:	4293      	cmp	r3, r2
 800203e:	f67f af40 	bls.w	8001ec2 <_ZN3ros11NodeHandle_I13STM32HardwareLi10ELi10ELi4096ELi4096EE8spinOnceEv+0x66>
 8002042:	4628      	mov	r0, r5
 8002044:	f7ff fe54 	bl	8001cf0 <_ZN3ros11NodeHandle_I13STM32HardwareLi10ELi10ELi4096ELi4096EE15requestSyncTimeEv>
 8002048:	f8c4 6080 	str.w	r6, [r4, #128]	@ 0x80
 800204c:	e739      	b.n	8001ec2 <_ZN3ros11NodeHandle_I13STM32HardwareLi10ELi10ELi4096ELi4096EE8spinOnceEv+0x66>
 800204e:	bf00      	nop
 8002050:	800000ff 	.word	0x800000ff

08002054 <loop>:
 8002054:	b570      	push	{r4, r5, r6, lr}
 8002056:	f000 faf5 	bl	8002644 <HAL_GetTick>
 800205a:	f7fe fa2d 	bl	80004b8 <__aeabi_ui2d>
 800205e:	4602      	mov	r2, r0
 8002060:	460b      	mov	r3, r1
 8002062:	4c18      	ldr	r4, [pc, #96]	@ (80020c4 <loop+0x70>)
 8002064:	4d18      	ldr	r5, [pc, #96]	@ (80020c8 <loop+0x74>)
 8002066:	4e19      	ldr	r6, [pc, #100]	@ (80020cc <loop+0x78>)
 8002068:	e9c4 2300 	strd	r2, r3, [r4]
 800206c:	e9d5 2300 	ldrd	r2, r3, [r5]
 8002070:	f7fe f8e4 	bl	800023c <__aeabi_dsub>
 8002074:	e9d6 2300 	ldrd	r2, r3, [r6]
 8002078:	f7fe fd1e 	bl	8000ab8 <__aeabi_dcmpge>
 800207c:	b148      	cbz	r0, 8002092 <loop+0x3e>
 800207e:	4b14      	ldr	r3, [pc, #80]	@ (80020d0 <loop+0x7c>)
 8002080:	7819      	ldrb	r1, [r3, #0]
 8002082:	4b14      	ldr	r3, [pc, #80]	@ (80020d4 <loop+0x80>)
 8002084:	6818      	ldr	r0, [r3, #0]
 8002086:	f7fe ffdd 	bl	8001044 <Motor_Set_PWM_Duty>
 800208a:	e9d4 2300 	ldrd	r2, r3, [r4]
 800208e:	e9c5 2300 	strd	r2, r3, [r5]
 8002092:	e9d4 0100 	ldrd	r0, r1, [r4]
 8002096:	4d10      	ldr	r5, [pc, #64]	@ (80020d8 <loop+0x84>)
 8002098:	e9d5 2300 	ldrd	r2, r3, [r5]
 800209c:	f7fe f8ce 	bl	800023c <__aeabi_dsub>
 80020a0:	e9d6 2302 	ldrd	r2, r3, [r6, #8]
 80020a4:	f7fe fd08 	bl	8000ab8 <__aeabi_dcmpge>
 80020a8:	b138      	cbz	r0, 80020ba <loop+0x66>
 80020aa:	f7ff fbe9 	bl	8001880 <_Z9updateRpmv>
 80020ae:	f7ff fc3b 	bl	8001928 <_Z13publishRpmMsgv>
 80020b2:	e9d4 2300 	ldrd	r2, r3, [r4]
 80020b6:	e9c5 2300 	strd	r2, r3, [r5]
 80020ba:	4808      	ldr	r0, [pc, #32]	@ (80020dc <loop+0x88>)
 80020bc:	f7ff fece 	bl	8001e5c <_ZN3ros11NodeHandle_I13STM32HardwareLi10ELi10ELi4096ELi4096EE8spinOnceEv>
 80020c0:	bd70      	pop	{r4, r5, r6, pc}
 80020c2:	bf00      	nop
 80020c4:	20000218 	.word	0x20000218
 80020c8:	20000210 	.word	0x20000210
 80020cc:	20000000 	.word	0x20000000
 80020d0:	200001f0 	.word	0x200001f0
 80020d4:	20000224 	.word	0x20000224
 80020d8:	20000208 	.word	0x20000208
 80020dc:	200002ec 	.word	0x200002ec

080020e0 <_GLOBAL__sub_I_comm_rosserial>:
 80020e0:	e92d 41f0 	stmdb	sp!, {r4, r5, r6, r7, r8, lr}
 80020e4:	2400      	movs	r4, #0
 80020e6:	2701      	movs	r7, #1
 80020e8:	f44f 5580 	mov.w	r5, #4096	@ 0x1000
 80020ec:	f04f 0828 	mov.w	r8, #40	@ 0x28
 80020f0:	4b40      	ldr	r3, [pc, #256]	@ (80021f4 <_GLOBAL__sub_I_comm_rosserial+0x114>)
 80020f2:	4a41      	ldr	r2, [pc, #260]	@ (80021f8 <_GLOBAL__sub_I_comm_rosserial+0x118>)
 80020f4:	4e41      	ldr	r6, [pc, #260]	@ (80021fc <_GLOBAL__sub_I_comm_rosserial+0x11c>)
 80020f6:	601a      	str	r2, [r3, #0]
 80020f8:	f503 5200 	add.w	r2, r3, #8192	@ 0x2000
 80020fc:	7117      	strb	r7, [r2, #4]
 80020fe:	80d4      	strh	r4, [r2, #6]
 8002100:	6094      	str	r4, [r2, #8]
 8002102:	4a3f      	ldr	r2, [pc, #252]	@ (8002200 <_GLOBAL__sub_I_comm_rosserial+0x120>)
 8002104:	4621      	mov	r1, r4
 8002106:	e9c6 2300 	strd	r2, r3, [r6]
 800210a:	f106 0018 	add.w	r0, r6, #24
 800210e:	462a      	mov	r2, r5
 8002110:	e9c6 4402 	strd	r4, r4, [r6, #8]
 8002114:	e9c6 4404 	strd	r4, r4, [r6, #16]
 8002118:	f002 fad4 	bl	80046c4 <memset>
 800211c:	1970      	adds	r0, r6, r5
 800211e:	462a      	mov	r2, r5
 8002120:	4621      	mov	r1, r4
 8002122:	f506 5500 	add.w	r5, r6, #8192	@ 0x2000
 8002126:	3018      	adds	r0, #24
 8002128:	f002 facc 	bl	80046c4 <memset>
 800212c:	4642      	mov	r2, r8
 800212e:	4621      	mov	r1, r4
 8002130:	f105 0018 	add.w	r0, r5, #24
 8002134:	f002 fac6 	bl	80046c4 <memset>
 8002138:	4642      	mov	r2, r8
 800213a:	4621      	mov	r1, r4
 800213c:	f506 5001 	add.w	r0, r6, #8256	@ 0x2040
 8002140:	f002 fac0 	bl	80046c4 <memset>
 8002144:	4b2f      	ldr	r3, [pc, #188]	@ (8002204 <_GLOBAL__sub_I_comm_rosserial+0x124>)
 8002146:	2100      	movs	r1, #0
 8002148:	e9c5 3424 	strd	r3, r4, [r5, #144]	@ 0x90
 800214c:	2300      	movs	r3, #0
 800214e:	2000      	movs	r0, #0
 8002150:	f8c5 30a4 	str.w	r3, [r5, #164]	@ 0xa4
 8002154:	4b2c      	ldr	r3, [pc, #176]	@ (8002208 <_GLOBAL__sub_I_comm_rosserial+0x128>)
 8002156:	4a2d      	ldr	r2, [pc, #180]	@ (800220c <_GLOBAL__sub_I_comm_rosserial+0x12c>)
 8002158:	e9c3 4400 	strd	r4, r4, [r3]
 800215c:	4b2c      	ldr	r3, [pc, #176]	@ (8002210 <_GLOBAL__sub_I_comm_rosserial+0x130>)
 800215e:	4e2d      	ldr	r6, [pc, #180]	@ (8002214 <_GLOBAL__sub_I_comm_rosserial+0x134>)
 8002160:	601a      	str	r2, [r3, #0]
 8002162:	4a2d      	ldr	r2, [pc, #180]	@ (8002218 <_GLOBAL__sub_I_comm_rosserial+0x138>)
 8002164:	741c      	strb	r4, [r3, #16]
 8002166:	60da      	str	r2, [r3, #12]
 8002168:	4a2c      	ldr	r2, [pc, #176]	@ (800221c <_GLOBAL__sub_I_comm_rosserial+0x13c>)
 800216a:	e9c5 441a 	strd	r4, r4, [r5, #104]	@ 0x68
 800216e:	e9c3 2705 	strd	r2, r7, [r3, #20]
 8002172:	4a2b      	ldr	r2, [pc, #172]	@ (8002220 <_GLOBAL__sub_I_comm_rosserial+0x140>)
 8002174:	e9c5 441c 	strd	r4, r4, [r5, #112]	@ 0x70
 8002178:	609a      	str	r2, [r3, #8]
 800217a:	e9c5 4420 	strd	r4, r4, [r5, #128]	@ 0x80
 800217e:	4b29      	ldr	r3, [pc, #164]	@ (8002224 <_GLOBAL__sub_I_comm_rosserial+0x144>)
 8002180:	4a29      	ldr	r2, [pc, #164]	@ (8002228 <_GLOBAL__sub_I_comm_rosserial+0x148>)
 8002182:	e9c5 4426 	strd	r4, r4, [r5, #152]	@ 0x98
 8002186:	e9c5 442a 	strd	r4, r4, [r5, #168]	@ 0xa8
 800218a:	e9c5 442c 	strd	r4, r4, [r5, #176]	@ 0xb0
 800218e:	f8df c09c 	ldr.w	ip, [pc, #156]	@ 800222c <_GLOBAL__sub_I_comm_rosserial+0x14c>
 8002192:	67ac      	str	r4, [r5, #120]	@ 0x78
 8002194:	f885 407c 	strb.w	r4, [r5, #124]	@ 0x7c
 8002198:	f8c5 4088 	str.w	r4, [r5, #136]	@ 0x88
 800219c:	f885 408c 	strb.w	r4, [r5, #140]	@ 0x8c
 80021a0:	f8c5 40a0 	str.w	r4, [r5, #160]	@ 0xa0
 80021a4:	4d22      	ldr	r5, [pc, #136]	@ (8002230 <_GLOBAL__sub_I_comm_rosserial+0x150>)
 80021a6:	e9c3 0106 	strd	r0, r1, [r3, #24]
 80021aa:	601e      	str	r6, [r3, #0]
 80021ac:	611d      	str	r5, [r3, #16]
 80021ae:	e9c3 2708 	strd	r2, r7, [r3, #32]
 80021b2:	f8c3 c008 	str.w	ip, [r3, #8]
 80021b6:	4b1f      	ldr	r3, [pc, #124]	@ (8002234 <_GLOBAL__sub_I_comm_rosserial+0x154>)
 80021b8:	f8df c07c 	ldr.w	ip, [pc, #124]	@ 8002238 <_GLOBAL__sub_I_comm_rosserial+0x158>
 80021bc:	e9c3 0106 	strd	r0, r1, [r3, #24]
 80021c0:	e9c3 2708 	strd	r2, r7, [r3, #32]
 80021c4:	601e      	str	r6, [r3, #0]
 80021c6:	611d      	str	r5, [r3, #16]
 80021c8:	f8c3 c008 	str.w	ip, [r3, #8]
 80021cc:	4b1b      	ldr	r3, [pc, #108]	@ (800223c <_GLOBAL__sub_I_comm_rosserial+0x15c>)
 80021ce:	e9c3 2708 	strd	r2, r7, [r3, #32]
 80021d2:	4a1b      	ldr	r2, [pc, #108]	@ (8002240 <_GLOBAL__sub_I_comm_rosserial+0x160>)
 80021d4:	e9c3 0106 	strd	r0, r1, [r3, #24]
 80021d8:	601e      	str	r6, [r3, #0]
 80021da:	611d      	str	r5, [r3, #16]
 80021dc:	609a      	str	r2, [r3, #8]
 80021de:	4a19      	ldr	r2, [pc, #100]	@ (8002244 <_GLOBAL__sub_I_comm_rosserial+0x164>)
 80021e0:	4b19      	ldr	r3, [pc, #100]	@ (8002248 <_GLOBAL__sub_I_comm_rosserial+0x168>)
 80021e2:	491a      	ldr	r1, [pc, #104]	@ (800224c <_GLOBAL__sub_I_comm_rosserial+0x16c>)
 80021e4:	e9c2 3400 	strd	r3, r4, [r2]
 80021e8:	4b19      	ldr	r3, [pc, #100]	@ (8002250 <_GLOBAL__sub_I_comm_rosserial+0x170>)
 80021ea:	e9c3 1200 	strd	r1, r2, [r3]
 80021ee:	611c      	str	r4, [r3, #16]
 80021f0:	e8bd 81f0 	ldmia.w	sp!, {r4, r5, r6, r7, r8, pc}
 80021f4:	200023a4 	.word	0x200023a4
 80021f8:	20000118 	.word	0x20000118
 80021fc:	200002ec 	.word	0x200002ec
 8002200:	08004ab0 	.word	0x08004ab0
 8002204:	08004a50 	.word	0x08004a50
 8002208:	200002e4 	.word	0x200002e4
 800220c:	08004ac4 	.word	0x08004ac4
 8002210:	200002c8 	.word	0x200002c8
 8002214:	08004adc 	.word	0x08004adc
 8002218:	08004a68 	.word	0x08004a68
 800221c:	0800156d 	.word	0x0800156d
 8002220:	080049ba 	.word	0x080049ba
 8002224:	200002a0 	.word	0x200002a0
 8002228:	0800158d 	.word	0x0800158d
 800222c:	080049c7 	.word	0x080049c7
 8002230:	08004a98 	.word	0x08004a98
 8002234:	20000278 	.word	0x20000278
 8002238:	080049d6 	.word	0x080049d6
 800223c:	20000250 	.word	0x20000250
 8002240:	080049e5 	.word	0x080049e5
 8002244:	20000244 	.word	0x20000244
 8002248:	08004a80 	.word	0x08004a80
 800224c:	080049f4 	.word	0x080049f4
 8002250:	20000230 	.word	0x20000230

08002254 <Moving_Avg_Init>:
 8002254:	2100      	movs	r1, #0
 8002256:	22c8      	movs	r2, #200	@ 0xc8
 8002258:	e9c0 1132 	strd	r1, r1, [r0, #200]	@ 0xc8
 800225c:	f002 ba32 	b.w	80046c4 <memset>

08002260 <Moving_Avg_Compute>:
 8002260:	e9d0 3232 	ldrd	r3, r2, [r0, #200]	@ 0xc8
 8002264:	b510      	push	{r4, lr}
 8002266:	f850 4022 	ldr.w	r4, [r0, r2, lsl #2]
 800226a:	440b      	add	r3, r1
 800226c:	1b1b      	subs	r3, r3, r4
 800226e:	2a31      	cmp	r2, #49	@ 0x31
 8002270:	f8c0 30c8 	str.w	r3, [r0, #200]	@ 0xc8
 8002274:	f840 1022 	str.w	r1, [r0, r2, lsl #2]
 8002278:	f102 0101 	add.w	r1, r2, #1
 800227c:	bf08      	it	eq
 800227e:	2100      	moveq	r1, #0
 8002280:	f8c0 10cc 	str.w	r1, [r0, #204]	@ 0xcc
 8002284:	2032      	movs	r0, #50	@ 0x32
 8002286:	fbb3 f0f0 	udiv	r0, r3, r0
 800228a:	bd10      	pop	{r4, pc}

0800228c <PID_Init>:
 800228c:	b5f8      	push	{r3, r4, r5, r6, r7, lr}
 800228e:	4604      	mov	r4, r0
 8002290:	460d      	mov	r5, r1
 8002292:	2001      	movs	r0, #1
 8002294:	2130      	movs	r1, #48	@ 0x30
 8002296:	4616      	mov	r6, r2
 8002298:	461f      	mov	r7, r3
 800229a:	f002 f8f9 	bl	8004490 <calloc>
 800229e:	e9c0 4502 	strd	r4, r5, [r0, #8]
 80022a2:	e9dd 4506 	ldrd	r4, r5, [sp, #24]
 80022a6:	e9c0 4506 	strd	r4, r5, [r0, #24]
 80022aa:	2400      	movs	r4, #0
 80022ac:	2500      	movs	r5, #0
 80022ae:	e9c0 6704 	strd	r6, r7, [r0, #16]
 80022b2:	e9c0 4508 	strd	r4, r5, [r0, #32]
 80022b6:	e9c0 450a 	strd	r4, r5, [r0, #40]	@ 0x28
 80022ba:	bdf8      	pop	{r3, r4, r5, r6, r7, pc}

080022bc <HAL_MspInit>:
 80022bc:	4b0e      	ldr	r3, [pc, #56]	@ (80022f8 <HAL_MspInit+0x3c>)
 80022be:	b082      	sub	sp, #8
 80022c0:	699a      	ldr	r2, [r3, #24]
 80022c2:	f042 0201 	orr.w	r2, r2, #1
 80022c6:	619a      	str	r2, [r3, #24]
 80022c8:	699a      	ldr	r2, [r3, #24]
 80022ca:	f002 0201 	and.w	r2, r2, #1
 80022ce:	9200      	str	r2, [sp, #0]
 80022d0:	9a00      	ldr	r2, [sp, #0]
 80022d2:	69da      	ldr	r2, [r3, #28]
 80022d4:	f042 5280 	orr.w	r2, r2, #268435456	@ 0x10000000
 80022d8:	61da      	str	r2, [r3, #28]
 80022da:	69db      	ldr	r3, [r3, #28]
 80022dc:	4a07      	ldr	r2, [pc, #28]	@ (80022fc <HAL_MspInit+0x40>)
 80022de:	f003 5380 	and.w	r3, r3, #268435456	@ 0x10000000
 80022e2:	9301      	str	r3, [sp, #4]
 80022e4:	9b01      	ldr	r3, [sp, #4]
 80022e6:	6853      	ldr	r3, [r2, #4]
 80022e8:	f023 63e0 	bic.w	r3, r3, #117440512	@ 0x7000000
 80022ec:	f043 7300 	orr.w	r3, r3, #33554432	@ 0x2000000
 80022f0:	6053      	str	r3, [r2, #4]
 80022f2:	b002      	add	sp, #8
 80022f4:	4770      	bx	lr
 80022f6:	bf00      	nop
 80022f8:	40021000 	.word	0x40021000
 80022fc:	40010000 	.word	0x40010000

08002300 <HAL_TIM_Base_MspInit>:
 8002300:	2210      	movs	r2, #16
 8002302:	b510      	push	{r4, lr}
 8002304:	4604      	mov	r4, r0
 8002306:	b088      	sub	sp, #32
 8002308:	eb0d 0002 	add.w	r0, sp, r2
 800230c:	2100      	movs	r1, #0
 800230e:	f002 f9d9 	bl	80046c4 <memset>
 8002312:	6823      	ldr	r3, [r4, #0]
 8002314:	4a19      	ldr	r2, [pc, #100]	@ (800237c <HAL_TIM_Base_MspInit+0x7c>)
 8002316:	4293      	cmp	r3, r2
 8002318:	d10b      	bne.n	8002332 <HAL_TIM_Base_MspInit+0x32>
 800231a:	4b19      	ldr	r3, [pc, #100]	@ (8002380 <HAL_TIM_Base_MspInit+0x80>)
 800231c:	699a      	ldr	r2, [r3, #24]
 800231e:	f442 6200 	orr.w	r2, r2, #2048	@ 0x800
 8002322:	619a      	str	r2, [r3, #24]
 8002324:	699b      	ldr	r3, [r3, #24]
 8002326:	f403 6300 	and.w	r3, r3, #2048	@ 0x800
 800232a:	9301      	str	r3, [sp, #4]
 800232c:	9b01      	ldr	r3, [sp, #4]
 800232e:	b008      	add	sp, #32
 8002330:	bd10      	pop	{r4, pc}
 8002332:	4a14      	ldr	r2, [pc, #80]	@ (8002384 <HAL_TIM_Base_MspInit+0x84>)
 8002334:	4293      	cmp	r3, r2
 8002336:	d1fa      	bne.n	800232e <HAL_TIM_Base_MspInit+0x2e>
 8002338:	4b11      	ldr	r3, [pc, #68]	@ (8002380 <HAL_TIM_Base_MspInit+0x80>)
 800233a:	a904      	add	r1, sp, #16
 800233c:	699a      	ldr	r2, [r3, #24]
 800233e:	4812      	ldr	r0, [pc, #72]	@ (8002388 <HAL_TIM_Base_MspInit+0x88>)
 8002340:	f442 5200 	orr.w	r2, r2, #8192	@ 0x2000
 8002344:	619a      	str	r2, [r3, #24]
 8002346:	699a      	ldr	r2, [r3, #24]
 8002348:	f402 5200 	and.w	r2, r2, #8192	@ 0x2000
 800234c:	9202      	str	r2, [sp, #8]
 800234e:	9a02      	ldr	r2, [sp, #8]
 8002350:	699a      	ldr	r2, [r3, #24]
 8002352:	f042 0210 	orr.w	r2, r2, #16
 8002356:	619a      	str	r2, [r3, #24]
 8002358:	699b      	ldr	r3, [r3, #24]
 800235a:	f003 0310 	and.w	r3, r3, #16
 800235e:	9303      	str	r3, [sp, #12]
 8002360:	9b03      	ldr	r3, [sp, #12]
 8002362:	2340      	movs	r3, #64	@ 0x40
 8002364:	9304      	str	r3, [sp, #16]
 8002366:	f000 fc55 	bl	8002c14 <HAL_GPIO_Init>
 800236a:	2200      	movs	r2, #0
 800236c:	202e      	movs	r0, #46	@ 0x2e
 800236e:	4611      	mov	r1, r2
 8002370:	f000 f980 	bl	8002674 <HAL_NVIC_SetPriority>
 8002374:	202e      	movs	r0, #46	@ 0x2e
 8002376:	f000 f9ad 	bl	80026d4 <HAL_NVIC_EnableIRQ>
 800237a:	e7d8      	b.n	800232e <HAL_TIM_Base_MspInit+0x2e>
 800237c:	40012c00 	.word	0x40012c00
 8002380:	40021000 	.word	0x40021000
 8002384:	40013400 	.word	0x40013400
 8002388:	40011000 	.word	0x40011000

0800238c <HAL_TIM_MspPostInit>:
 800238c:	b510      	push	{r4, lr}
 800238e:	4604      	mov	r4, r0
 8002390:	b086      	sub	sp, #24
 8002392:	2210      	movs	r2, #16
 8002394:	2100      	movs	r1, #0
 8002396:	a802      	add	r0, sp, #8
 8002398:	f002 f994 	bl	80046c4 <memset>
 800239c:	6822      	ldr	r2, [r4, #0]
 800239e:	4b0d      	ldr	r3, [pc, #52]	@ (80023d4 <HAL_TIM_MspPostInit+0x48>)
 80023a0:	429a      	cmp	r2, r3
 80023a2:	d114      	bne.n	80023ce <HAL_TIM_MspPostInit+0x42>
 80023a4:	f503 4364 	add.w	r3, r3, #58368	@ 0xe400
 80023a8:	699a      	ldr	r2, [r3, #24]
 80023aa:	480b      	ldr	r0, [pc, #44]	@ (80023d8 <HAL_TIM_MspPostInit+0x4c>)
 80023ac:	f042 0204 	orr.w	r2, r2, #4
 80023b0:	619a      	str	r2, [r3, #24]
 80023b2:	699b      	ldr	r3, [r3, #24]
 80023b4:	f44f 7280 	mov.w	r2, #256	@ 0x100
 80023b8:	f003 0304 	and.w	r3, r3, #4
 80023bc:	9301      	str	r3, [sp, #4]
 80023be:	9b01      	ldr	r3, [sp, #4]
 80023c0:	2302      	movs	r3, #2
 80023c2:	a902      	add	r1, sp, #8
 80023c4:	e9cd 2302 	strd	r2, r3, [sp, #8]
 80023c8:	9305      	str	r3, [sp, #20]
 80023ca:	f000 fc23 	bl	8002c14 <HAL_GPIO_Init>
 80023ce:	b006      	add	sp, #24
 80023d0:	bd10      	pop	{r4, pc}
 80023d2:	bf00      	nop
 80023d4:	40012c00 	.word	0x40012c00
 80023d8:	40010800 	.word	0x40010800

080023dc <HAL_UART_MspInit>:
 80023dc:	b5f0      	push	{r4, r5, r6, r7, lr}
 80023de:	4606      	mov	r6, r0
 80023e0:	b087      	sub	sp, #28
 80023e2:	2210      	movs	r2, #16
 80023e4:	2100      	movs	r1, #0
 80023e6:	a802      	add	r0, sp, #8
 80023e8:	f002 f96c 	bl	80046c4 <memset>
 80023ec:	6832      	ldr	r2, [r6, #0]
 80023ee:	4b31      	ldr	r3, [pc, #196]	@ (80024b4 <HAL_UART_MspInit+0xd8>)
 80023f0:	429a      	cmp	r2, r3
 80023f2:	d15c      	bne.n	80024ae <HAL_UART_MspInit+0xd2>
 80023f4:	f503 4358 	add.w	r3, r3, #55296	@ 0xd800
 80023f8:	699a      	ldr	r2, [r3, #24]
 80023fa:	2140      	movs	r1, #64	@ 0x40
 80023fc:	f442 4280 	orr.w	r2, r2, #16384	@ 0x4000
 8002400:	619a      	str	r2, [r3, #24]
 8002402:	699a      	ldr	r2, [r3, #24]
 8002404:	2500      	movs	r5, #0
 8002406:	f402 4280 	and.w	r2, r2, #16384	@ 0x4000
 800240a:	9200      	str	r2, [sp, #0]
 800240c:	9a00      	ldr	r2, [sp, #0]
 800240e:	699a      	ldr	r2, [r3, #24]
 8002410:	2780      	movs	r7, #128	@ 0x80
 8002412:	f042 0208 	orr.w	r2, r2, #8
 8002416:	619a      	str	r2, [r3, #24]
 8002418:	699b      	ldr	r3, [r3, #24]
 800241a:	4827      	ldr	r0, [pc, #156]	@ (80024b8 <HAL_UART_MspInit+0xdc>)
 800241c:	f003 0308 	and.w	r3, r3, #8
 8002420:	9301      	str	r3, [sp, #4]
 8002422:	9b01      	ldr	r3, [sp, #4]
 8002424:	2302      	movs	r3, #2
 8002426:	e9cd 1302 	strd	r1, r3, [sp, #8]
 800242a:	2303      	movs	r3, #3
 800242c:	a902      	add	r1, sp, #8
 800242e:	9305      	str	r3, [sp, #20]
 8002430:	f000 fbf0 	bl	8002c14 <HAL_GPIO_Init>
 8002434:	4820      	ldr	r0, [pc, #128]	@ (80024b8 <HAL_UART_MspInit+0xdc>)
 8002436:	a902      	add	r1, sp, #8
 8002438:	e9cd 7502 	strd	r7, r5, [sp, #8]
 800243c:	9504      	str	r5, [sp, #16]
 800243e:	f000 fbe9 	bl	8002c14 <HAL_GPIO_Init>
 8002442:	4a1e      	ldr	r2, [pc, #120]	@ (80024bc <HAL_UART_MspInit+0xe0>)
 8002444:	4c1e      	ldr	r4, [pc, #120]	@ (80024c0 <HAL_UART_MspInit+0xe4>)
 8002446:	6853      	ldr	r3, [r2, #4]
 8002448:	4620      	mov	r0, r4
 800244a:	f043 63e0 	orr.w	r3, r3, #117440512	@ 0x7000000
 800244e:	f043 0304 	orr.w	r3, r3, #4
 8002452:	6053      	str	r3, [r2, #4]
 8002454:	4b1b      	ldr	r3, [pc, #108]	@ (80024c4 <HAL_UART_MspInit+0xe8>)
 8002456:	e9c4 5702 	strd	r5, r7, [r4, #8]
 800245a:	e9c4 3500 	strd	r3, r5, [r4]
 800245e:	e9c4 5504 	strd	r5, r5, [r4, #16]
 8002462:	e9c4 5506 	strd	r5, r5, [r4, #24]
 8002466:	f000 f957 	bl	8002718 <HAL_DMA_Init>
 800246a:	b108      	cbz	r0, 8002470 <HAL_UART_MspInit+0x94>
 800246c:	f7fe ffd6 	bl	800141c <Error_Handler>
 8002470:	2310      	movs	r3, #16
 8002472:	4a15      	ldr	r2, [pc, #84]	@ (80024c8 <HAL_UART_MspInit+0xec>)
 8002474:	63f4      	str	r4, [r6, #60]	@ 0x3c
 8002476:	6266      	str	r6, [r4, #36]	@ 0x24
 8002478:	4c14      	ldr	r4, [pc, #80]	@ (80024cc <HAL_UART_MspInit+0xf0>)
 800247a:	e9c4 2300 	strd	r2, r3, [r4]
 800247e:	2300      	movs	r3, #0
 8002480:	2280      	movs	r2, #128	@ 0x80
 8002482:	4620      	mov	r0, r4
 8002484:	e9c4 3202 	strd	r3, r2, [r4, #8]
 8002488:	e9c4 3304 	strd	r3, r3, [r4, #16]
 800248c:	e9c4 3306 	strd	r3, r3, [r4, #24]
 8002490:	f000 f942 	bl	8002718 <HAL_DMA_Init>
 8002494:	b108      	cbz	r0, 800249a <HAL_UART_MspInit+0xbe>
 8002496:	f7fe ffc1 	bl	800141c <Error_Handler>
 800249a:	2200      	movs	r2, #0
 800249c:	2025      	movs	r0, #37	@ 0x25
 800249e:	4611      	mov	r1, r2
 80024a0:	63b4      	str	r4, [r6, #56]	@ 0x38
 80024a2:	6266      	str	r6, [r4, #36]	@ 0x24
 80024a4:	f000 f8e6 	bl	8002674 <HAL_NVIC_SetPriority>
 80024a8:	2025      	movs	r0, #37	@ 0x25
 80024aa:	f000 f913 	bl	80026d4 <HAL_NVIC_EnableIRQ>
 80024ae:	b007      	add	sp, #28
 80024b0:	bdf0      	pop	{r4, r5, r6, r7, pc}
 80024b2:	bf00      	nop
 80024b4:	40013800 	.word	0x40013800
 80024b8:	40010c00 	.word	0x40010c00
 80024bc:	40010000 	.word	0x40010000
 80024c0:	200000d4 	.word	0x200000d4
 80024c4:	40020058 	.word	0x40020058
 80024c8:	40020044 	.word	0x40020044
 80024cc:	20000090 	.word	0x20000090

080024d0 <NMI_Handler>:
 80024d0:	e7fe      	b.n	80024d0 <NMI_Handler>

080024d2 <HardFault_Handler>:
 80024d2:	e7fe      	b.n	80024d2 <HardFault_Handler>

080024d4 <MemManage_Handler>:
 80024d4:	e7fe      	b.n	80024d4 <MemManage_Handler>

080024d6 <BusFault_Handler>:
 80024d6:	e7fe      	b.n	80024d6 <BusFault_Handler>

080024d8 <UsageFault_Handler>:
 80024d8:	e7fe      	b.n	80024d8 <UsageFault_Handler>

080024da <SVC_Handler>:
 80024da:	4770      	bx	lr

080024dc <DebugMon_Handler>:
 80024dc:	4770      	bx	lr

080024de <PendSV_Handler>:
 80024de:	4770      	bx	lr

080024e0 <SysTick_Handler>:
 80024e0:	f000 b8a4 	b.w	800262c <HAL_IncTick>

080024e4 <DMA1_Channel4_IRQHandler>:
 80024e4:	4801      	ldr	r0, [pc, #4]	@ (80024ec <DMA1_Channel4_IRQHandler+0x8>)
 80024e6:	f000 ba55 	b.w	8002994 <HAL_DMA_IRQHandler>
 80024ea:	bf00      	nop
 80024ec:	20000090 	.word	0x20000090

080024f0 <DMA1_Channel5_IRQHandler>:
 80024f0:	4801      	ldr	r0, [pc, #4]	@ (80024f8 <DMA1_Channel5_IRQHandler+0x8>)
 80024f2:	f000 ba4f 	b.w	8002994 <HAL_DMA_IRQHandler>
 80024f6:	bf00      	nop
 80024f8:	200000d4 	.word	0x200000d4

080024fc <USART1_IRQHandler>:
 80024fc:	4801      	ldr	r0, [pc, #4]	@ (8002504 <USART1_IRQHandler+0x8>)
 80024fe:	f001 be1f 	b.w	8004140 <HAL_UART_IRQHandler>
 8002502:	bf00      	nop
 8002504:	20000118 	.word	0x20000118

08002508 <TIM8_CC_IRQHandler>:
 8002508:	4801      	ldr	r0, [pc, #4]	@ (8002510 <TIM8_CC_IRQHandler+0x8>)
 800250a:	f000 bf81 	b.w	8003410 <HAL_TIM_IRQHandler>
 800250e:	bf00      	nop
 8002510:	20000160 	.word	0x20000160

08002514 <_sbrk>:
 8002514:	4a0b      	ldr	r2, [pc, #44]	@ (8002544 <_sbrk+0x30>)
 8002516:	4603      	mov	r3, r0
 8002518:	6811      	ldr	r1, [r2, #0]
 800251a:	b510      	push	{r4, lr}
 800251c:	b909      	cbnz	r1, 8002522 <_sbrk+0xe>
 800251e:	490a      	ldr	r1, [pc, #40]	@ (8002548 <_sbrk+0x34>)
 8002520:	6011      	str	r1, [r2, #0]
 8002522:	6810      	ldr	r0, [r2, #0]
 8002524:	4909      	ldr	r1, [pc, #36]	@ (800254c <_sbrk+0x38>)
 8002526:	4c0a      	ldr	r4, [pc, #40]	@ (8002550 <_sbrk+0x3c>)
 8002528:	4403      	add	r3, r0
 800252a:	1b09      	subs	r1, r1, r4
 800252c:	428b      	cmp	r3, r1
 800252e:	d906      	bls.n	800253e <_sbrk+0x2a>
 8002530:	f002 f8e0 	bl	80046f4 <__errno>
 8002534:	230c      	movs	r3, #12
 8002536:	6003      	str	r3, [r0, #0]
 8002538:	f04f 30ff 	mov.w	r0, #4294967295
 800253c:	bd10      	pop	{r4, pc}
 800253e:	6013      	str	r3, [r2, #0]
 8002540:	e7fc      	b.n	800253c <_sbrk+0x28>
 8002542:	bf00      	nop
 8002544:	200043b0 	.word	0x200043b0
 8002548:	20004500 	.word	0x20004500
 800254c:	2000c000 	.word	0x2000c000
 8002550:	00000400 	.word	0x00000400

08002554 <SystemInit>:
 8002554:	4770      	bx	lr
	...

08002558 <_ZN3ros16normalizeSecNSecERmS0_>:
 8002558:	680b      	ldr	r3, [r1, #0]
 800255a:	b530      	push	{r4, r5, lr}
 800255c:	4d04      	ldr	r5, [pc, #16]	@ (8002570 <_ZN3ros16normalizeSecNSecERmS0_+0x18>)
 800255e:	6802      	ldr	r2, [r0, #0]
 8002560:	fbb3 f4f5 	udiv	r4, r3, r5
 8002564:	fb05 3314 	mls	r3, r5, r4, r3
 8002568:	4422      	add	r2, r4
 800256a:	6002      	str	r2, [r0, #0]
 800256c:	600b      	str	r3, [r1, #0]
 800256e:	bd30      	pop	{r4, r5, pc}
 8002570:	3b9aca00 	.word	0x3b9aca00

08002574 <Reset_Handler>:
 8002574:	f7ff ffee 	bl	8002554 <SystemInit>
 8002578:	480b      	ldr	r0, [pc, #44]	@ (80025a8 <LoopFillZerobss+0xe>)
 800257a:	490c      	ldr	r1, [pc, #48]	@ (80025ac <LoopFillZerobss+0x12>)
 800257c:	4a0c      	ldr	r2, [pc, #48]	@ (80025b0 <LoopFillZerobss+0x16>)
 800257e:	2300      	movs	r3, #0
 8002580:	e002      	b.n	8002588 <LoopCopyDataInit>

08002582 <CopyDataInit>:
 8002582:	58d4      	ldr	r4, [r2, r3]
 8002584:	50c4      	str	r4, [r0, r3]
 8002586:	3304      	adds	r3, #4

08002588 <LoopCopyDataInit>:
 8002588:	18c4      	adds	r4, r0, r3
 800258a:	428c      	cmp	r4, r1
 800258c:	d3f9      	bcc.n	8002582 <CopyDataInit>
 800258e:	4a09      	ldr	r2, [pc, #36]	@ (80025b4 <LoopFillZerobss+0x1a>)
 8002590:	4c09      	ldr	r4, [pc, #36]	@ (80025b8 <LoopFillZerobss+0x1e>)
 8002592:	2300      	movs	r3, #0
 8002594:	e001      	b.n	800259a <LoopFillZerobss>

08002596 <FillZerobss>:
 8002596:	6013      	str	r3, [r2, #0]
 8002598:	3204      	adds	r2, #4

0800259a <LoopFillZerobss>:
 800259a:	42a2      	cmp	r2, r4
 800259c:	d3fb      	bcc.n	8002596 <FillZerobss>
 800259e:	f002 f8af 	bl	8004700 <__libc_init_array>
 80025a2:	f7fe fe0f 	bl	80011c4 <main>
 80025a6:	4770      	bx	lr
 80025a8:	20000000 	.word	0x20000000
 80025ac:	2000006c 	.word	0x2000006c
 80025b0:	08004b48 	.word	0x08004b48
 80025b4:	20000070 	.word	0x20000070
 80025b8:	20004500 	.word	0x20004500

080025bc <ADC1_2_IRQHandler>:
 80025bc:	e7fe      	b.n	80025bc <ADC1_2_IRQHandler>
	...

080025c0 <HAL_InitTick>:
 80025c0:	b538      	push	{r3, r4, r5, lr}
 80025c2:	4b0e      	ldr	r3, [pc, #56]	@ (80025fc <HAL_InitTick+0x3c>)
 80025c4:	4605      	mov	r5, r0
 80025c6:	781a      	ldrb	r2, [r3, #0]
 80025c8:	f44f 737a 	mov.w	r3, #1000	@ 0x3e8
 80025cc:	fbb3 f3f2 	udiv	r3, r3, r2
 80025d0:	4a0b      	ldr	r2, [pc, #44]	@ (8002600 <HAL_InitTick+0x40>)
 80025d2:	6810      	ldr	r0, [r2, #0]
 80025d4:	fbb0 f0f3 	udiv	r0, r0, r3
 80025d8:	f000 f88a 	bl	80026f0 <HAL_SYSTICK_Config>
 80025dc:	4604      	mov	r4, r0
 80025de:	b958      	cbnz	r0, 80025f8 <HAL_InitTick+0x38>
 80025e0:	2d0f      	cmp	r5, #15
 80025e2:	d809      	bhi.n	80025f8 <HAL_InitTick+0x38>
 80025e4:	4602      	mov	r2, r0
 80025e6:	4629      	mov	r1, r5
 80025e8:	f04f 30ff 	mov.w	r0, #4294967295
 80025ec:	f000 f842 	bl	8002674 <HAL_NVIC_SetPriority>
 80025f0:	4620      	mov	r0, r4
 80025f2:	4b04      	ldr	r3, [pc, #16]	@ (8002604 <HAL_InitTick+0x44>)
 80025f4:	601d      	str	r5, [r3, #0]
 80025f6:	bd38      	pop	{r3, r4, r5, pc}
 80025f8:	2001      	movs	r0, #1
 80025fa:	e7fc      	b.n	80025f6 <HAL_InitTick+0x36>
 80025fc:	20000014 	.word	0x20000014
 8002600:	20000010 	.word	0x20000010
 8002604:	20000018 	.word	0x20000018

08002608 <HAL_Init>:
 8002608:	4a07      	ldr	r2, [pc, #28]	@ (8002628 <HAL_Init+0x20>)
 800260a:	b508      	push	{r3, lr}
 800260c:	6813      	ldr	r3, [r2, #0]
 800260e:	2003      	movs	r0, #3
 8002610:	f043 0310 	orr.w	r3, r3, #16
 8002614:	6013      	str	r3, [r2, #0]
 8002616:	f000 f81b 	bl	8002650 <HAL_NVIC_SetPriorityGrouping>
 800261a:	200f      	movs	r0, #15
 800261c:	f7ff ffd0 	bl	80025c0 <HAL_InitTick>
 8002620:	f7ff fe4c 	bl	80022bc <HAL_MspInit>
 8002624:	2000      	movs	r0, #0
 8002626:	bd08      	pop	{r3, pc}
 8002628:	40022000 	.word	0x40022000

0800262c <HAL_IncTick>:
 800262c:	4a03      	ldr	r2, [pc, #12]	@ (800263c <HAL_IncTick+0x10>)
 800262e:	4b04      	ldr	r3, [pc, #16]	@ (8002640 <HAL_IncTick+0x14>)
 8002630:	6811      	ldr	r1, [r2, #0]
 8002632:	781b      	ldrb	r3, [r3, #0]
 8002634:	440b      	add	r3, r1
 8002636:	6013      	str	r3, [r2, #0]
 8002638:	4770      	bx	lr
 800263a:	bf00      	nop
 800263c:	200043b4 	.word	0x200043b4
 8002640:	20000014 	.word	0x20000014

08002644 <HAL_GetTick>:
 8002644:	4b01      	ldr	r3, [pc, #4]	@ (800264c <HAL_GetTick+0x8>)
 8002646:	6818      	ldr	r0, [r3, #0]
 8002648:	4770      	bx	lr
 800264a:	bf00      	nop
 800264c:	200043b4 	.word	0x200043b4

08002650 <HAL_NVIC_SetPriorityGrouping>:
 8002650:	4907      	ldr	r1, [pc, #28]	@ (8002670 <HAL_NVIC_SetPriorityGrouping+0x20>)
 8002652:	0203      	lsls	r3, r0, #8
 8002654:	68ca      	ldr	r2, [r1, #12]
 8002656:	f403 63e0 	and.w	r3, r3, #1792	@ 0x700
 800265a:	f422 62e0 	bic.w	r2, r2, #1792	@ 0x700
 800265e:	0412      	lsls	r2, r2, #16
 8002660:	0c12      	lsrs	r2, r2, #16
 8002662:	4313      	orrs	r3, r2
 8002664:	f043 63bf 	orr.w	r3, r3, #100139008	@ 0x5f80000
 8002668:	f443 3300 	orr.w	r3, r3, #131072	@ 0x20000
 800266c:	60cb      	str	r3, [r1, #12]
 800266e:	4770      	bx	lr
 8002670:	e000ed00 	.word	0xe000ed00

08002674 <HAL_NVIC_SetPriority>:
 8002674:	4b15      	ldr	r3, [pc, #84]	@ (80026cc <HAL_NVIC_SetPriority+0x58>)
 8002676:	b530      	push	{r4, r5, lr}
 8002678:	68dc      	ldr	r4, [r3, #12]
 800267a:	f3c4 2402 	ubfx	r4, r4, #8, #3
 800267e:	f1c4 0307 	rsb	r3, r4, #7
 8002682:	1d25      	adds	r5, r4, #4
 8002684:	2b04      	cmp	r3, #4
 8002686:	bf28      	it	cs
 8002688:	2304      	movcs	r3, #4
 800268a:	2d06      	cmp	r5, #6
 800268c:	f04f 35ff 	mov.w	r5, #4294967295
 8002690:	bf94      	ite	ls
 8002692:	2400      	movls	r4, #0
 8002694:	3c03      	subhi	r4, #3
 8002696:	fa05 f303 	lsl.w	r3, r5, r3
 800269a:	ea21 0303 	bic.w	r3, r1, r3
 800269e:	40a5      	lsls	r5, r4
 80026a0:	ea22 0205 	bic.w	r2, r2, r5
 80026a4:	40a3      	lsls	r3, r4
 80026a6:	2800      	cmp	r0, #0
 80026a8:	ea43 0302 	orr.w	r3, r3, r2
 80026ac:	bfac      	ite	ge
 80026ae:	f100 4060 	addge.w	r0, r0, #3758096384	@ 0xe0000000
 80026b2:	4a07      	ldrlt	r2, [pc, #28]	@ (80026d0 <HAL_NVIC_SetPriority+0x5c>)
 80026b4:	ea4f 1303 	mov.w	r3, r3, lsl #4
 80026b8:	b2db      	uxtb	r3, r3
 80026ba:	bfab      	itete	ge
 80026bc:	f500 4061 	addge.w	r0, r0, #57600	@ 0xe100
 80026c0:	f000 000f 	andlt.w	r0, r0, #15
 80026c4:	f880 3300 	strbge.w	r3, [r0, #768]	@ 0x300
 80026c8:	5413      	strblt	r3, [r2, r0]
 80026ca:	bd30      	pop	{r4, r5, pc}
 80026cc:	e000ed00 	.word	0xe000ed00
 80026d0:	e000ed14 	.word	0xe000ed14

080026d4 <HAL_NVIC_EnableIRQ>:
 80026d4:	2800      	cmp	r0, #0
 80026d6:	db07      	blt.n	80026e8 <HAL_NVIC_EnableIRQ+0x14>
 80026d8:	2301      	movs	r3, #1
 80026da:	0941      	lsrs	r1, r0, #5
 80026dc:	4a03      	ldr	r2, [pc, #12]	@ (80026ec <HAL_NVIC_EnableIRQ+0x18>)
 80026de:	f000 001f 	and.w	r0, r0, #31
 80026e2:	4083      	lsls	r3, r0
 80026e4:	f842 3021 	str.w	r3, [r2, r1, lsl #2]
 80026e8:	4770      	bx	lr
 80026ea:	bf00      	nop
 80026ec:	e000e100 	.word	0xe000e100

080026f0 <HAL_SYSTICK_Config>:
 80026f0:	3801      	subs	r0, #1
 80026f2:	f1b0 7f80 	cmp.w	r0, #16777216	@ 0x1000000
 80026f6:	d20b      	bcs.n	8002710 <HAL_SYSTICK_Config+0x20>
 80026f8:	f04f 23e0 	mov.w	r3, #3758153728	@ 0xe000e000
 80026fc:	21f0      	movs	r1, #240	@ 0xf0
 80026fe:	4a05      	ldr	r2, [pc, #20]	@ (8002714 <HAL_SYSTICK_Config+0x24>)
 8002700:	6158      	str	r0, [r3, #20]
 8002702:	f882 1023 	strb.w	r1, [r2, #35]	@ 0x23
 8002706:	2000      	movs	r0, #0
 8002708:	2207      	movs	r2, #7
 800270a:	6198      	str	r0, [r3, #24]
 800270c:	611a      	str	r2, [r3, #16]
 800270e:	4770      	bx	lr
 8002710:	2001      	movs	r0, #1
 8002712:	4770      	bx	lr
 8002714:	e000ed00 	.word	0xe000ed00

08002718 <HAL_DMA_Init>:
 8002718:	4603      	mov	r3, r0
 800271a:	b510      	push	{r4, lr}
 800271c:	2800      	cmp	r0, #0
 800271e:	d032      	beq.n	8002786 <HAL_DMA_Init+0x6e>
 8002720:	6801      	ldr	r1, [r0, #0]
 8002722:	4a1a      	ldr	r2, [pc, #104]	@ (800278c <HAL_DMA_Init+0x74>)
 8002724:	2014      	movs	r0, #20
 8002726:	4291      	cmp	r1, r2
 8002728:	d826      	bhi.n	8002778 <HAL_DMA_Init+0x60>
 800272a:	4a19      	ldr	r2, [pc, #100]	@ (8002790 <HAL_DMA_Init+0x78>)
 800272c:	440a      	add	r2, r1
 800272e:	fbb2 f2f0 	udiv	r2, r2, r0
 8002732:	4818      	ldr	r0, [pc, #96]	@ (8002794 <HAL_DMA_Init+0x7c>)
 8002734:	0092      	lsls	r2, r2, #2
 8002736:	e9c3 020f 	strd	r0, r2, [r3, #60]	@ 0x3c
 800273a:	2202      	movs	r2, #2
 800273c:	f883 2021 	strb.w	r2, [r3, #33]	@ 0x21
 8002740:	e9d3 2401 	ldrd	r2, r4, [r3, #4]
 8002744:	4322      	orrs	r2, r4
 8002746:	68dc      	ldr	r4, [r3, #12]
 8002748:	6808      	ldr	r0, [r1, #0]
 800274a:	4322      	orrs	r2, r4
 800274c:	691c      	ldr	r4, [r3, #16]
 800274e:	f420 507f 	bic.w	r0, r0, #16320	@ 0x3fc0
 8002752:	4322      	orrs	r2, r4
 8002754:	695c      	ldr	r4, [r3, #20]
 8002756:	f020 0030 	bic.w	r0, r0, #48	@ 0x30
 800275a:	4322      	orrs	r2, r4
 800275c:	699c      	ldr	r4, [r3, #24]
 800275e:	4322      	orrs	r2, r4
 8002760:	69dc      	ldr	r4, [r3, #28]
 8002762:	4322      	orrs	r2, r4
 8002764:	4302      	orrs	r2, r0
 8002766:	600a      	str	r2, [r1, #0]
 8002768:	2000      	movs	r0, #0
 800276a:	2201      	movs	r2, #1
 800276c:	6398      	str	r0, [r3, #56]	@ 0x38
 800276e:	f883 0020 	strb.w	r0, [r3, #32]
 8002772:	f883 2021 	strb.w	r2, [r3, #33]	@ 0x21
 8002776:	bd10      	pop	{r4, pc}
 8002778:	4a07      	ldr	r2, [pc, #28]	@ (8002798 <HAL_DMA_Init+0x80>)
 800277a:	440a      	add	r2, r1
 800277c:	fbb2 f2f0 	udiv	r2, r2, r0
 8002780:	4806      	ldr	r0, [pc, #24]	@ (800279c <HAL_DMA_Init+0x84>)
 8002782:	0092      	lsls	r2, r2, #2
 8002784:	e7d7      	b.n	8002736 <HAL_DMA_Init+0x1e>
 8002786:	2001      	movs	r0, #1
 8002788:	e7f5      	b.n	8002776 <HAL_DMA_Init+0x5e>
 800278a:	bf00      	nop
 800278c:	40020407 	.word	0x40020407
 8002790:	bffdfff8 	.word	0xbffdfff8
 8002794:	40020000 	.word	0x40020000
 8002798:	bffdfbf8 	.word	0xbffdfbf8
 800279c:	40020400 	.word	0x40020400

080027a0 <HAL_DMA_Start_IT>:
 80027a0:	b5f0      	push	{r4, r5, r6, r7, lr}
 80027a2:	f890 4020 	ldrb.w	r4, [r0, #32]
 80027a6:	2c01      	cmp	r4, #1
 80027a8:	d034      	beq.n	8002814 <HAL_DMA_Start_IT+0x74>
 80027aa:	2401      	movs	r4, #1
 80027ac:	f880 4020 	strb.w	r4, [r0, #32]
 80027b0:	f890 4021 	ldrb.w	r4, [r0, #33]	@ 0x21
 80027b4:	2c01      	cmp	r4, #1
 80027b6:	b2e5      	uxtb	r5, r4
 80027b8:	f04f 0400 	mov.w	r4, #0
 80027bc:	d128      	bne.n	8002810 <HAL_DMA_Start_IT+0x70>
 80027be:	2602      	movs	r6, #2
 80027c0:	f880 6021 	strb.w	r6, [r0, #33]	@ 0x21
 80027c4:	6384      	str	r4, [r0, #56]	@ 0x38
 80027c6:	6804      	ldr	r4, [r0, #0]
 80027c8:	6826      	ldr	r6, [r4, #0]
 80027ca:	f026 0601 	bic.w	r6, r6, #1
 80027ce:	6026      	str	r6, [r4, #0]
 80027d0:	e9d0 670f 	ldrd	r6, r7, [r0, #60]	@ 0x3c
 80027d4:	40bd      	lsls	r5, r7
 80027d6:	6075      	str	r5, [r6, #4]
 80027d8:	6063      	str	r3, [r4, #4]
 80027da:	6843      	ldr	r3, [r0, #4]
 80027dc:	2b10      	cmp	r3, #16
 80027de:	6ac3      	ldr	r3, [r0, #44]	@ 0x2c
 80027e0:	bf0b      	itete	eq
 80027e2:	60a2      	streq	r2, [r4, #8]
 80027e4:	60a1      	strne	r1, [r4, #8]
 80027e6:	60e1      	streq	r1, [r4, #12]
 80027e8:	60e2      	strne	r2, [r4, #12]
 80027ea:	b14b      	cbz	r3, 8002800 <HAL_DMA_Start_IT+0x60>
 80027ec:	6823      	ldr	r3, [r4, #0]
 80027ee:	f043 030e 	orr.w	r3, r3, #14
 80027f2:	2000      	movs	r0, #0
 80027f4:	6023      	str	r3, [r4, #0]
 80027f6:	6823      	ldr	r3, [r4, #0]
 80027f8:	f043 0301 	orr.w	r3, r3, #1
 80027fc:	6023      	str	r3, [r4, #0]
 80027fe:	bdf0      	pop	{r4, r5, r6, r7, pc}
 8002800:	6823      	ldr	r3, [r4, #0]
 8002802:	f023 0304 	bic.w	r3, r3, #4
 8002806:	6023      	str	r3, [r4, #0]
 8002808:	6823      	ldr	r3, [r4, #0]
 800280a:	f043 030a 	orr.w	r3, r3, #10
 800280e:	e7f0      	b.n	80027f2 <HAL_DMA_Start_IT+0x52>
 8002810:	f880 4020 	strb.w	r4, [r0, #32]
 8002814:	2002      	movs	r0, #2
 8002816:	e7f2      	b.n	80027fe <HAL_DMA_Start_IT+0x5e>

08002818 <HAL_DMA_Abort>:
 8002818:	f890 2021 	ldrb.w	r2, [r0, #33]	@ 0x21
 800281c:	4603      	mov	r3, r0
 800281e:	2a02      	cmp	r2, #2
 8002820:	d006      	beq.n	8002830 <HAL_DMA_Abort+0x18>
 8002822:	2204      	movs	r2, #4
 8002824:	6382      	str	r2, [r0, #56]	@ 0x38
 8002826:	2001      	movs	r0, #1
 8002828:	2200      	movs	r2, #0
 800282a:	f883 2020 	strb.w	r2, [r3, #32]
 800282e:	4770      	bx	lr
 8002830:	6802      	ldr	r2, [r0, #0]
 8002832:	6bc0      	ldr	r0, [r0, #60]	@ 0x3c
 8002834:	6811      	ldr	r1, [r2, #0]
 8002836:	f021 010e 	bic.w	r1, r1, #14
 800283a:	6011      	str	r1, [r2, #0]
 800283c:	6811      	ldr	r1, [r2, #0]
 800283e:	f021 0101 	bic.w	r1, r1, #1
 8002842:	6011      	str	r1, [r2, #0]
 8002844:	2101      	movs	r1, #1
 8002846:	6c1a      	ldr	r2, [r3, #64]	@ 0x40
 8002848:	fa01 f202 	lsl.w	r2, r1, r2
 800284c:	6042      	str	r2, [r0, #4]
 800284e:	2000      	movs	r0, #0
 8002850:	f883 1021 	strb.w	r1, [r3, #33]	@ 0x21
 8002854:	e7e8      	b.n	8002828 <HAL_DMA_Abort+0x10>
	...

08002858 <HAL_DMA_Abort_IT>:
 8002858:	b508      	push	{r3, lr}
 800285a:	f890 3021 	ldrb.w	r3, [r0, #33]	@ 0x21
 800285e:	2b02      	cmp	r3, #2
 8002860:	d003      	beq.n	800286a <HAL_DMA_Abort_IT+0x12>
 8002862:	2304      	movs	r3, #4
 8002864:	6383      	str	r3, [r0, #56]	@ 0x38
 8002866:	2001      	movs	r0, #1
 8002868:	bd08      	pop	{r3, pc}
 800286a:	6803      	ldr	r3, [r0, #0]
 800286c:	4943      	ldr	r1, [pc, #268]	@ (800297c <HAL_DMA_Abort_IT+0x124>)
 800286e:	681a      	ldr	r2, [r3, #0]
 8002870:	f022 020e 	bic.w	r2, r2, #14
 8002874:	601a      	str	r2, [r3, #0]
 8002876:	681a      	ldr	r2, [r3, #0]
 8002878:	f022 0201 	bic.w	r2, r2, #1
 800287c:	601a      	str	r2, [r3, #0]
 800287e:	4a40      	ldr	r2, [pc, #256]	@ (8002980 <HAL_DMA_Abort_IT+0x128>)
 8002880:	4293      	cmp	r3, r2
 8002882:	d943      	bls.n	800290c <HAL_DMA_Abort_IT+0xb4>
 8002884:	428b      	cmp	r3, r1
 8002886:	d03a      	beq.n	80028fe <HAL_DMA_Abort_IT+0xa6>
 8002888:	3114      	adds	r1, #20
 800288a:	428b      	cmp	r3, r1
 800288c:	d039      	beq.n	8002902 <HAL_DMA_Abort_IT+0xaa>
 800288e:	3114      	adds	r1, #20
 8002890:	428b      	cmp	r3, r1
 8002892:	d038      	beq.n	8002906 <HAL_DMA_Abort_IT+0xae>
 8002894:	3114      	adds	r1, #20
 8002896:	428b      	cmp	r3, r1
 8002898:	d025      	beq.n	80028e6 <HAL_DMA_Abort_IT+0x8e>
 800289a:	3114      	adds	r1, #20
 800289c:	428b      	cmp	r3, r1
 800289e:	d025      	beq.n	80028ec <HAL_DMA_Abort_IT+0x94>
 80028a0:	3114      	adds	r1, #20
 80028a2:	428b      	cmp	r3, r1
 80028a4:	d025      	beq.n	80028f2 <HAL_DMA_Abort_IT+0x9a>
 80028a6:	4293      	cmp	r3, r2
 80028a8:	d026      	beq.n	80028f8 <HAL_DMA_Abort_IT+0xa0>
 80028aa:	f502 7262 	add.w	r2, r2, #904	@ 0x388
 80028ae:	4293      	cmp	r3, r2
 80028b0:	d025      	beq.n	80028fe <HAL_DMA_Abort_IT+0xa6>
 80028b2:	3214      	adds	r2, #20
 80028b4:	4293      	cmp	r3, r2
 80028b6:	d024      	beq.n	8002902 <HAL_DMA_Abort_IT+0xaa>
 80028b8:	3214      	adds	r2, #20
 80028ba:	4293      	cmp	r3, r2
 80028bc:	d023      	beq.n	8002906 <HAL_DMA_Abort_IT+0xae>
 80028be:	3214      	adds	r2, #20
 80028c0:	4293      	cmp	r3, r2
 80028c2:	bf14      	ite	ne
 80028c4:	f44f 3380 	movne.w	r3, #65536	@ 0x10000
 80028c8:	f44f 5380 	moveq.w	r3, #4096	@ 0x1000
 80028cc:	4a2d      	ldr	r2, [pc, #180]	@ (8002984 <HAL_DMA_Abort_IT+0x12c>)
 80028ce:	6053      	str	r3, [r2, #4]
 80028d0:	2301      	movs	r3, #1
 80028d2:	f880 3021 	strb.w	r3, [r0, #33]	@ 0x21
 80028d6:	2300      	movs	r3, #0
 80028d8:	f880 3020 	strb.w	r3, [r0, #32]
 80028dc:	6b43      	ldr	r3, [r0, #52]	@ 0x34
 80028de:	b103      	cbz	r3, 80028e2 <HAL_DMA_Abort_IT+0x8a>
 80028e0:	4798      	blx	r3
 80028e2:	2000      	movs	r0, #0
 80028e4:	e7c0      	b.n	8002868 <HAL_DMA_Abort_IT+0x10>
 80028e6:	f44f 5380 	mov.w	r3, #4096	@ 0x1000
 80028ea:	e7ef      	b.n	80028cc <HAL_DMA_Abort_IT+0x74>
 80028ec:	f44f 3380 	mov.w	r3, #65536	@ 0x10000
 80028f0:	e7ec      	b.n	80028cc <HAL_DMA_Abort_IT+0x74>
 80028f2:	f44f 1380 	mov.w	r3, #1048576	@ 0x100000
 80028f6:	e7e9      	b.n	80028cc <HAL_DMA_Abort_IT+0x74>
 80028f8:	f04f 7380 	mov.w	r3, #16777216	@ 0x1000000
 80028fc:	e7e6      	b.n	80028cc <HAL_DMA_Abort_IT+0x74>
 80028fe:	2301      	movs	r3, #1
 8002900:	e7e4      	b.n	80028cc <HAL_DMA_Abort_IT+0x74>
 8002902:	2310      	movs	r3, #16
 8002904:	e7e2      	b.n	80028cc <HAL_DMA_Abort_IT+0x74>
 8002906:	f44f 7380 	mov.w	r3, #256	@ 0x100
 800290a:	e7df      	b.n	80028cc <HAL_DMA_Abort_IT+0x74>
 800290c:	428b      	cmp	r3, r1
 800290e:	d02e      	beq.n	800296e <HAL_DMA_Abort_IT+0x116>
 8002910:	491d      	ldr	r1, [pc, #116]	@ (8002988 <HAL_DMA_Abort_IT+0x130>)
 8002912:	428b      	cmp	r3, r1
 8002914:	d02d      	beq.n	8002972 <HAL_DMA_Abort_IT+0x11a>
 8002916:	3114      	adds	r1, #20
 8002918:	428b      	cmp	r3, r1
 800291a:	d02c      	beq.n	8002976 <HAL_DMA_Abort_IT+0x11e>
 800291c:	3114      	adds	r1, #20
 800291e:	428b      	cmp	r3, r1
 8002920:	d019      	beq.n	8002956 <HAL_DMA_Abort_IT+0xfe>
 8002922:	3114      	adds	r1, #20
 8002924:	428b      	cmp	r3, r1
 8002926:	d019      	beq.n	800295c <HAL_DMA_Abort_IT+0x104>
 8002928:	3114      	adds	r1, #20
 800292a:	428b      	cmp	r3, r1
 800292c:	d019      	beq.n	8002962 <HAL_DMA_Abort_IT+0x10a>
 800292e:	4293      	cmp	r3, r2
 8002930:	d01a      	beq.n	8002968 <HAL_DMA_Abort_IT+0x110>
 8002932:	4a16      	ldr	r2, [pc, #88]	@ (800298c <HAL_DMA_Abort_IT+0x134>)
 8002934:	4293      	cmp	r3, r2
 8002936:	d01a      	beq.n	800296e <HAL_DMA_Abort_IT+0x116>
 8002938:	3214      	adds	r2, #20
 800293a:	4293      	cmp	r3, r2
 800293c:	d019      	beq.n	8002972 <HAL_DMA_Abort_IT+0x11a>
 800293e:	3214      	adds	r2, #20
 8002940:	4293      	cmp	r3, r2
 8002942:	d018      	beq.n	8002976 <HAL_DMA_Abort_IT+0x11e>
 8002944:	3214      	adds	r2, #20
 8002946:	4293      	cmp	r3, r2
 8002948:	bf14      	ite	ne
 800294a:	f44f 3380 	movne.w	r3, #65536	@ 0x10000
 800294e:	f44f 5380 	moveq.w	r3, #4096	@ 0x1000
 8002952:	4a0f      	ldr	r2, [pc, #60]	@ (8002990 <HAL_DMA_Abort_IT+0x138>)
 8002954:	e7bb      	b.n	80028ce <HAL_DMA_Abort_IT+0x76>
 8002956:	f44f 5380 	mov.w	r3, #4096	@ 0x1000
 800295a:	e7fa      	b.n	8002952 <HAL_DMA_Abort_IT+0xfa>
 800295c:	f44f 3380 	mov.w	r3, #65536	@ 0x10000
 8002960:	e7f7      	b.n	8002952 <HAL_DMA_Abort_IT+0xfa>
 8002962:	f44f 1380 	mov.w	r3, #1048576	@ 0x100000
 8002966:	e7f4      	b.n	8002952 <HAL_DMA_Abort_IT+0xfa>
 8002968:	f04f 7380 	mov.w	r3, #16777216	@ 0x1000000
 800296c:	e7f1      	b.n	8002952 <HAL_DMA_Abort_IT+0xfa>
 800296e:	2301      	movs	r3, #1
 8002970:	e7ef      	b.n	8002952 <HAL_DMA_Abort_IT+0xfa>
 8002972:	2310      	movs	r3, #16
 8002974:	e7ed      	b.n	8002952 <HAL_DMA_Abort_IT+0xfa>
 8002976:	f44f 7380 	mov.w	r3, #256	@ 0x100
 800297a:	e7ea      	b.n	8002952 <HAL_DMA_Abort_IT+0xfa>
 800297c:	40020008 	.word	0x40020008
 8002980:	40020080 	.word	0x40020080
 8002984:	40020400 	.word	0x40020400
 8002988:	4002001c 	.word	0x4002001c
 800298c:	40020408 	.word	0x40020408
 8002990:	40020000 	.word	0x40020000

08002994 <HAL_DMA_IRQHandler>:
 8002994:	b470      	push	{r4, r5, r6}
 8002996:	2504      	movs	r5, #4
 8002998:	6bc6      	ldr	r6, [r0, #60]	@ 0x3c
 800299a:	6c02      	ldr	r2, [r0, #64]	@ 0x40
 800299c:	6834      	ldr	r4, [r6, #0]
 800299e:	6803      	ldr	r3, [r0, #0]
 80029a0:	4095      	lsls	r5, r2
 80029a2:	4225      	tst	r5, r4
 80029a4:	6819      	ldr	r1, [r3, #0]
 80029a6:	f000 8085 	beq.w	8002ab4 <HAL_DMA_IRQHandler+0x120>
 80029aa:	074d      	lsls	r5, r1, #29
 80029ac:	f140 8082 	bpl.w	8002ab4 <HAL_DMA_IRQHandler+0x120>
 80029b0:	681a      	ldr	r2, [r3, #0]
 80029b2:	4992      	ldr	r1, [pc, #584]	@ (8002bfc <HAL_DMA_IRQHandler+0x268>)
 80029b4:	0696      	lsls	r6, r2, #26
 80029b6:	bf5e      	ittt	pl
 80029b8:	681a      	ldrpl	r2, [r3, #0]
 80029ba:	f022 0204 	bicpl.w	r2, r2, #4
 80029be:	601a      	strpl	r2, [r3, #0]
 80029c0:	4a8f      	ldr	r2, [pc, #572]	@ (8002c00 <HAL_DMA_IRQHandler+0x26c>)
 80029c2:	4293      	cmp	r3, r2
 80029c4:	d93e      	bls.n	8002a44 <HAL_DMA_IRQHandler+0xb0>
 80029c6:	428b      	cmp	r3, r1
 80029c8:	d035      	beq.n	8002a36 <HAL_DMA_IRQHandler+0xa2>
 80029ca:	3114      	adds	r1, #20
 80029cc:	428b      	cmp	r3, r1
 80029ce:	d034      	beq.n	8002a3a <HAL_DMA_IRQHandler+0xa6>
 80029d0:	3114      	adds	r1, #20
 80029d2:	428b      	cmp	r3, r1
 80029d4:	d033      	beq.n	8002a3e <HAL_DMA_IRQHandler+0xaa>
 80029d6:	3114      	adds	r1, #20
 80029d8:	428b      	cmp	r3, r1
 80029da:	d020      	beq.n	8002a1e <HAL_DMA_IRQHandler+0x8a>
 80029dc:	3114      	adds	r1, #20
 80029de:	428b      	cmp	r3, r1
 80029e0:	d020      	beq.n	8002a24 <HAL_DMA_IRQHandler+0x90>
 80029e2:	3114      	adds	r1, #20
 80029e4:	428b      	cmp	r3, r1
 80029e6:	d020      	beq.n	8002a2a <HAL_DMA_IRQHandler+0x96>
 80029e8:	4293      	cmp	r3, r2
 80029ea:	d021      	beq.n	8002a30 <HAL_DMA_IRQHandler+0x9c>
 80029ec:	f502 7262 	add.w	r2, r2, #904	@ 0x388
 80029f0:	4293      	cmp	r3, r2
 80029f2:	d020      	beq.n	8002a36 <HAL_DMA_IRQHandler+0xa2>
 80029f4:	3214      	adds	r2, #20
 80029f6:	4293      	cmp	r3, r2
 80029f8:	d01f      	beq.n	8002a3a <HAL_DMA_IRQHandler+0xa6>
 80029fa:	3214      	adds	r2, #20
 80029fc:	4293      	cmp	r3, r2
 80029fe:	d01e      	beq.n	8002a3e <HAL_DMA_IRQHandler+0xaa>
 8002a00:	3214      	adds	r2, #20
 8002a02:	4293      	cmp	r3, r2
 8002a04:	bf14      	ite	ne
 8002a06:	f44f 2380 	movne.w	r3, #262144	@ 0x40000
 8002a0a:	f44f 4380 	moveq.w	r3, #16384	@ 0x4000
 8002a0e:	4a7d      	ldr	r2, [pc, #500]	@ (8002c04 <HAL_DMA_IRQHandler+0x270>)
 8002a10:	6053      	str	r3, [r2, #4]
 8002a12:	6ac3      	ldr	r3, [r0, #44]	@ 0x2c
 8002a14:	2b00      	cmp	r3, #0
 8002a16:	f000 80ef 	beq.w	8002bf8 <HAL_DMA_IRQHandler+0x264>
 8002a1a:	bc70      	pop	{r4, r5, r6}
 8002a1c:	4718      	bx	r3
 8002a1e:	f44f 4380 	mov.w	r3, #16384	@ 0x4000
 8002a22:	e7f4      	b.n	8002a0e <HAL_DMA_IRQHandler+0x7a>
 8002a24:	f44f 2380 	mov.w	r3, #262144	@ 0x40000
 8002a28:	e7f1      	b.n	8002a0e <HAL_DMA_IRQHandler+0x7a>
 8002a2a:	f44f 0380 	mov.w	r3, #4194304	@ 0x400000
 8002a2e:	e7ee      	b.n	8002a0e <HAL_DMA_IRQHandler+0x7a>
 8002a30:	f04f 6380 	mov.w	r3, #67108864	@ 0x4000000
 8002a34:	e7eb      	b.n	8002a0e <HAL_DMA_IRQHandler+0x7a>
 8002a36:	2304      	movs	r3, #4
 8002a38:	e7e9      	b.n	8002a0e <HAL_DMA_IRQHandler+0x7a>
 8002a3a:	2340      	movs	r3, #64	@ 0x40
 8002a3c:	e7e7      	b.n	8002a0e <HAL_DMA_IRQHandler+0x7a>
 8002a3e:	f44f 6380 	mov.w	r3, #1024	@ 0x400
 8002a42:	e7e4      	b.n	8002a0e <HAL_DMA_IRQHandler+0x7a>
 8002a44:	428b      	cmp	r3, r1
 8002a46:	d02e      	beq.n	8002aa6 <HAL_DMA_IRQHandler+0x112>
 8002a48:	496f      	ldr	r1, [pc, #444]	@ (8002c08 <HAL_DMA_IRQHandler+0x274>)
 8002a4a:	428b      	cmp	r3, r1
 8002a4c:	d02d      	beq.n	8002aaa <HAL_DMA_IRQHandler+0x116>
 8002a4e:	3114      	adds	r1, #20
 8002a50:	428b      	cmp	r3, r1
 8002a52:	d02c      	beq.n	8002aae <HAL_DMA_IRQHandler+0x11a>
 8002a54:	3114      	adds	r1, #20
 8002a56:	428b      	cmp	r3, r1
 8002a58:	d019      	beq.n	8002a8e <HAL_DMA_IRQHandler+0xfa>
 8002a5a:	3114      	adds	r1, #20
 8002a5c:	428b      	cmp	r3, r1
 8002a5e:	d019      	beq.n	8002a94 <HAL_DMA_IRQHandler+0x100>
 8002a60:	3114      	adds	r1, #20
 8002a62:	428b      	cmp	r3, r1
 8002a64:	d019      	beq.n	8002a9a <HAL_DMA_IRQHandler+0x106>
 8002a66:	4293      	cmp	r3, r2
 8002a68:	d01a      	beq.n	8002aa0 <HAL_DMA_IRQHandler+0x10c>
 8002a6a:	4a68      	ldr	r2, [pc, #416]	@ (8002c0c <HAL_DMA_IRQHandler+0x278>)
 8002a6c:	4293      	cmp	r3, r2
 8002a6e:	d01a      	beq.n	8002aa6 <HAL_DMA_IRQHandler+0x112>
 8002a70:	3214      	adds	r2, #20
 8002a72:	4293      	cmp	r3, r2
 8002a74:	d019      	beq.n	8002aaa <HAL_DMA_IRQHandler+0x116>
 8002a76:	3214      	adds	r2, #20
 8002a78:	4293      	cmp	r3, r2
 8002a7a:	d018      	beq.n	8002aae <HAL_DMA_IRQHandler+0x11a>
 8002a7c:	3214      	adds	r2, #20
 8002a7e:	4293      	cmp	r3, r2
 8002a80:	bf14      	ite	ne
 8002a82:	f44f 2380 	movne.w	r3, #262144	@ 0x40000
 8002a86:	f44f 4380 	moveq.w	r3, #16384	@ 0x4000
 8002a8a:	4a61      	ldr	r2, [pc, #388]	@ (8002c10 <HAL_DMA_IRQHandler+0x27c>)
 8002a8c:	e7c0      	b.n	8002a10 <HAL_DMA_IRQHandler+0x7c>
 8002a8e:	f44f 4380 	mov.w	r3, #16384	@ 0x4000
 8002a92:	e7fa      	b.n	8002a8a <HAL_DMA_IRQHandler+0xf6>
 8002a94:	f44f 2380 	mov.w	r3, #262144	@ 0x40000
 8002a98:	e7f7      	b.n	8002a8a <HAL_DMA_IRQHandler+0xf6>
 8002a9a:	f44f 0380 	mov.w	r3, #4194304	@ 0x400000
 8002a9e:	e7f4      	b.n	8002a8a <HAL_DMA_IRQHandler+0xf6>
 8002aa0:	f04f 6380 	mov.w	r3, #67108864	@ 0x4000000
 8002aa4:	e7f1      	b.n	8002a8a <HAL_DMA_IRQHandler+0xf6>
 8002aa6:	2304      	movs	r3, #4
 8002aa8:	e7ef      	b.n	8002a8a <HAL_DMA_IRQHandler+0xf6>
 8002aaa:	2340      	movs	r3, #64	@ 0x40
 8002aac:	e7ed      	b.n	8002a8a <HAL_DMA_IRQHandler+0xf6>
 8002aae:	f44f 6380 	mov.w	r3, #1024	@ 0x400
 8002ab2:	e7ea      	b.n	8002a8a <HAL_DMA_IRQHandler+0xf6>
 8002ab4:	2502      	movs	r5, #2
 8002ab6:	4095      	lsls	r5, r2
 8002ab8:	4225      	tst	r5, r4
 8002aba:	f000 8087 	beq.w	8002bcc <HAL_DMA_IRQHandler+0x238>
 8002abe:	078d      	lsls	r5, r1, #30
 8002ac0:	f140 8084 	bpl.w	8002bcc <HAL_DMA_IRQHandler+0x238>
 8002ac4:	681a      	ldr	r2, [r3, #0]
 8002ac6:	0694      	lsls	r4, r2, #26
 8002ac8:	d406      	bmi.n	8002ad8 <HAL_DMA_IRQHandler+0x144>
 8002aca:	681a      	ldr	r2, [r3, #0]
 8002acc:	f022 020a 	bic.w	r2, r2, #10
 8002ad0:	601a      	str	r2, [r3, #0]
 8002ad2:	2201      	movs	r2, #1
 8002ad4:	f880 2021 	strb.w	r2, [r0, #33]	@ 0x21
 8002ad8:	4a49      	ldr	r2, [pc, #292]	@ (8002c00 <HAL_DMA_IRQHandler+0x26c>)
 8002ada:	4948      	ldr	r1, [pc, #288]	@ (8002bfc <HAL_DMA_IRQHandler+0x268>)
 8002adc:	4293      	cmp	r3, r2
 8002ade:	d93d      	bls.n	8002b5c <HAL_DMA_IRQHandler+0x1c8>
 8002ae0:	428b      	cmp	r3, r1
 8002ae2:	d034      	beq.n	8002b4e <HAL_DMA_IRQHandler+0x1ba>
 8002ae4:	3114      	adds	r1, #20
 8002ae6:	428b      	cmp	r3, r1
 8002ae8:	d033      	beq.n	8002b52 <HAL_DMA_IRQHandler+0x1be>
 8002aea:	3114      	adds	r1, #20
 8002aec:	428b      	cmp	r3, r1
 8002aee:	d032      	beq.n	8002b56 <HAL_DMA_IRQHandler+0x1c2>
 8002af0:	3114      	adds	r1, #20
 8002af2:	428b      	cmp	r3, r1
 8002af4:	d01f      	beq.n	8002b36 <HAL_DMA_IRQHandler+0x1a2>
 8002af6:	3114      	adds	r1, #20
 8002af8:	428b      	cmp	r3, r1
 8002afa:	d01f      	beq.n	8002b3c <HAL_DMA_IRQHandler+0x1a8>
 8002afc:	3114      	adds	r1, #20
 8002afe:	428b      	cmp	r3, r1
 8002b00:	d01f      	beq.n	8002b42 <HAL_DMA_IRQHandler+0x1ae>
 8002b02:	4293      	cmp	r3, r2
 8002b04:	d020      	beq.n	8002b48 <HAL_DMA_IRQHandler+0x1b4>
 8002b06:	f502 7262 	add.w	r2, r2, #904	@ 0x388
 8002b0a:	4293      	cmp	r3, r2
 8002b0c:	d01f      	beq.n	8002b4e <HAL_DMA_IRQHandler+0x1ba>
 8002b0e:	3214      	adds	r2, #20
 8002b10:	4293      	cmp	r3, r2
 8002b12:	d01e      	beq.n	8002b52 <HAL_DMA_IRQHandler+0x1be>
 8002b14:	3214      	adds	r2, #20
 8002b16:	4293      	cmp	r3, r2
 8002b18:	d01d      	beq.n	8002b56 <HAL_DMA_IRQHandler+0x1c2>
 8002b1a:	3214      	adds	r2, #20
 8002b1c:	4293      	cmp	r3, r2
 8002b1e:	bf14      	ite	ne
 8002b20:	f44f 3300 	movne.w	r3, #131072	@ 0x20000
 8002b24:	f44f 5300 	moveq.w	r3, #8192	@ 0x2000
 8002b28:	4a36      	ldr	r2, [pc, #216]	@ (8002c04 <HAL_DMA_IRQHandler+0x270>)
 8002b2a:	6053      	str	r3, [r2, #4]
 8002b2c:	2300      	movs	r3, #0
 8002b2e:	f880 3020 	strb.w	r3, [r0, #32]
 8002b32:	6a83      	ldr	r3, [r0, #40]	@ 0x28
 8002b34:	e76e      	b.n	8002a14 <HAL_DMA_IRQHandler+0x80>
 8002b36:	f44f 5300 	mov.w	r3, #8192	@ 0x2000
 8002b3a:	e7f5      	b.n	8002b28 <HAL_DMA_IRQHandler+0x194>
 8002b3c:	f44f 3300 	mov.w	r3, #131072	@ 0x20000
 8002b40:	e7f2      	b.n	8002b28 <HAL_DMA_IRQHandler+0x194>
 8002b42:	f44f 1300 	mov.w	r3, #2097152	@ 0x200000
 8002b46:	e7ef      	b.n	8002b28 <HAL_DMA_IRQHandler+0x194>
 8002b48:	f04f 7300 	mov.w	r3, #33554432	@ 0x2000000
 8002b4c:	e7ec      	b.n	8002b28 <HAL_DMA_IRQHandler+0x194>
 8002b4e:	2302      	movs	r3, #2
 8002b50:	e7ea      	b.n	8002b28 <HAL_DMA_IRQHandler+0x194>
 8002b52:	2320      	movs	r3, #32
 8002b54:	e7e8      	b.n	8002b28 <HAL_DMA_IRQHandler+0x194>
 8002b56:	f44f 7300 	mov.w	r3, #512	@ 0x200
 8002b5a:	e7e5      	b.n	8002b28 <HAL_DMA_IRQHandler+0x194>
 8002b5c:	428b      	cmp	r3, r1
 8002b5e:	d02e      	beq.n	8002bbe <HAL_DMA_IRQHandler+0x22a>
 8002b60:	4929      	ldr	r1, [pc, #164]	@ (8002c08 <HAL_DMA_IRQHandler+0x274>)
 8002b62:	428b      	cmp	r3, r1
 8002b64:	d02d      	beq.n	8002bc2 <HAL_DMA_IRQHandler+0x22e>
 8002b66:	3114      	adds	r1, #20
 8002b68:	428b      	cmp	r3, r1
 8002b6a:	d02c      	beq.n	8002bc6 <HAL_DMA_IRQHandler+0x232>
 8002b6c:	3114      	adds	r1, #20
 8002b6e:	428b      	cmp	r3, r1
 8002b70:	d019      	beq.n	8002ba6 <HAL_DMA_IRQHandler+0x212>
 8002b72:	3114      	adds	r1, #20
 8002b74:	428b      	cmp	r3, r1
 8002b76:	d019      	beq.n	8002bac <HAL_DMA_IRQHandler+0x218>
 8002b78:	3114      	adds	r1, #20
 8002b7a:	428b      	cmp	r3, r1
 8002b7c:	d019      	beq.n	8002bb2 <HAL_DMA_IRQHandler+0x21e>
 8002b7e:	4293      	cmp	r3, r2
 8002b80:	d01a      	beq.n	8002bb8 <HAL_DMA_IRQHandler+0x224>
 8002b82:	4a22      	ldr	r2, [pc, #136]	@ (8002c0c <HAL_DMA_IRQHandler+0x278>)
 8002b84:	4293      	cmp	r3, r2
 8002b86:	d01a      	beq.n	8002bbe <HAL_DMA_IRQHandler+0x22a>
 8002b88:	3214      	adds	r2, #20
 8002b8a:	4293      	cmp	r3, r2
 8002b8c:	d019      	beq.n	8002bc2 <HAL_DMA_IRQHandler+0x22e>
 8002b8e:	3214      	adds	r2, #20
 8002b90:	4293      	cmp	r3, r2
 8002b92:	d018      	beq.n	8002bc6 <HAL_DMA_IRQHandler+0x232>
 8002b94:	3214      	adds	r2, #20
 8002b96:	4293      	cmp	r3, r2
 8002b98:	bf14      	ite	ne
 8002b9a:	f44f 3300 	movne.w	r3, #131072	@ 0x20000
 8002b9e:	f44f 5300 	moveq.w	r3, #8192	@ 0x2000
 8002ba2:	4a1b      	ldr	r2, [pc, #108]	@ (8002c10 <HAL_DMA_IRQHandler+0x27c>)
 8002ba4:	e7c1      	b.n	8002b2a <HAL_DMA_IRQHandler+0x196>
 8002ba6:	f44f 5300 	mov.w	r3, #8192	@ 0x2000
 8002baa:	e7fa      	b.n	8002ba2 <HAL_DMA_IRQHandler+0x20e>
 8002bac:	f44f 3300 	mov.w	r3, #131072	@ 0x20000
 8002bb0:	e7f7      	b.n	8002ba2 <HAL_DMA_IRQHandler+0x20e>
 8002bb2:	f44f 1300 	mov.w	r3, #2097152	@ 0x200000
 8002bb6:	e7f4      	b.n	8002ba2 <HAL_DMA_IRQHandler+0x20e>
 8002bb8:	f04f 7300 	mov.w	r3, #33554432	@ 0x2000000
 8002bbc:	e7f1      	b.n	8002ba2 <HAL_DMA_IRQHandler+0x20e>
 8002bbe:	2302      	movs	r3, #2
 8002bc0:	e7ef      	b.n	8002ba2 <HAL_DMA_IRQHandler+0x20e>
 8002bc2:	2320      	movs	r3, #32
 8002bc4:	e7ed      	b.n	8002ba2 <HAL_DMA_IRQHandler+0x20e>
 8002bc6:	f44f 7300 	mov.w	r3, #512	@ 0x200
 8002bca:	e7ea      	b.n	8002ba2 <HAL_DMA_IRQHandler+0x20e>
 8002bcc:	2508      	movs	r5, #8
 8002bce:	4095      	lsls	r5, r2
 8002bd0:	4225      	tst	r5, r4
 8002bd2:	d011      	beq.n	8002bf8 <HAL_DMA_IRQHandler+0x264>
 8002bd4:	0709      	lsls	r1, r1, #28
 8002bd6:	d50f      	bpl.n	8002bf8 <HAL_DMA_IRQHandler+0x264>
 8002bd8:	6819      	ldr	r1, [r3, #0]
 8002bda:	f021 010e 	bic.w	r1, r1, #14
 8002bde:	6019      	str	r1, [r3, #0]
 8002be0:	2301      	movs	r3, #1
 8002be2:	fa03 f202 	lsl.w	r2, r3, r2
 8002be6:	6072      	str	r2, [r6, #4]
 8002be8:	6383      	str	r3, [r0, #56]	@ 0x38
 8002bea:	f880 3021 	strb.w	r3, [r0, #33]	@ 0x21
 8002bee:	2300      	movs	r3, #0
 8002bf0:	f880 3020 	strb.w	r3, [r0, #32]
 8002bf4:	6b03      	ldr	r3, [r0, #48]	@ 0x30
 8002bf6:	e70d      	b.n	8002a14 <HAL_DMA_IRQHandler+0x80>
 8002bf8:	bc70      	pop	{r4, r5, r6}
 8002bfa:	4770      	bx	lr
 8002bfc:	40020008 	.word	0x40020008
 8002c00:	40020080 	.word	0x40020080
 8002c04:	40020400 	.word	0x40020400
 8002c08:	4002001c 	.word	0x4002001c
 8002c0c:	40020408 	.word	0x40020408
 8002c10:	40020000 	.word	0x40020000

08002c14 <HAL_GPIO_Init>:
 8002c14:	e92d 4ff7 	stmdb	sp!, {r0, r1, r2, r4, r5, r6, r7, r8, r9, sl, fp, lr}
 8002c18:	2400      	movs	r4, #0
 8002c1a:	4626      	mov	r6, r4
 8002c1c:	f8df c1a4 	ldr.w	ip, [pc, #420]	@ 8002dc4 <HAL_GPIO_Init+0x1b0>
 8002c20:	4b69      	ldr	r3, [pc, #420]	@ (8002dc8 <HAL_GPIO_Init+0x1b4>)
 8002c22:	f8df e1a8 	ldr.w	lr, [pc, #424]	@ 8002dcc <HAL_GPIO_Init+0x1b8>
 8002c26:	f8df 81a8 	ldr.w	r8, [pc, #424]	@ 8002dd0 <HAL_GPIO_Init+0x1bc>
 8002c2a:	680a      	ldr	r2, [r1, #0]
 8002c2c:	fa32 f506 	lsrs.w	r5, r2, r6
 8002c30:	d102      	bne.n	8002c38 <HAL_GPIO_Init+0x24>
 8002c32:	b003      	add	sp, #12
 8002c34:	e8bd 8ff0 	ldmia.w	sp!, {r4, r5, r6, r7, r8, r9, sl, fp, pc}
 8002c38:	2701      	movs	r7, #1
 8002c3a:	40b7      	lsls	r7, r6
 8002c3c:	ea02 0507 	and.w	r5, r2, r7
 8002c40:	ea37 0202 	bics.w	r2, r7, r2
 8002c44:	f040 8083 	bne.w	8002d4e <HAL_GPIO_Init+0x13a>
 8002c48:	684a      	ldr	r2, [r1, #4]
 8002c4a:	2a03      	cmp	r2, #3
 8002c4c:	d807      	bhi.n	8002c5e <HAL_GPIO_Init+0x4a>
 8002c4e:	3a01      	subs	r2, #1
 8002c50:	2a02      	cmp	r2, #2
 8002c52:	f200 808c 	bhi.w	8002d6e <HAL_GPIO_Init+0x15a>
 8002c56:	e8df f002 	tbb	[pc, r2]
 8002c5a:	a09b      	.short	0xa09b
 8002c5c:	a6          	.byte	0xa6
 8002c5d:	00          	.byte	0x00
 8002c5e:	2a12      	cmp	r2, #18
 8002c60:	f000 809e 	beq.w	8002da0 <HAL_GPIO_Init+0x18c>
 8002c64:	d875      	bhi.n	8002d52 <HAL_GPIO_Init+0x13e>
 8002c66:	2a11      	cmp	r2, #17
 8002c68:	f000 8094 	beq.w	8002d94 <HAL_GPIO_Init+0x180>
 8002c6c:	2dff      	cmp	r5, #255	@ 0xff
 8002c6e:	bf98      	it	ls
 8002c70:	4681      	movls	r9, r0
 8002c72:	f04f 0b0f 	mov.w	fp, #15
 8002c76:	bf88      	it	hi
 8002c78:	f100 0904 	addhi.w	r9, r0, #4
 8002c7c:	ea4f 0286 	mov.w	r2, r6, lsl #2
 8002c80:	f8d9 7000 	ldr.w	r7, [r9]
 8002c84:	bf88      	it	hi
 8002c86:	3a20      	subhi	r2, #32
 8002c88:	fa0b fa02 	lsl.w	sl, fp, r2
 8002c8c:	ea27 070a 	bic.w	r7, r7, sl
 8002c90:	fa04 f202 	lsl.w	r2, r4, r2
 8002c94:	4317      	orrs	r7, r2
 8002c96:	f8c9 7000 	str.w	r7, [r9]
 8002c9a:	f8d1 9004 	ldr.w	r9, [r1, #4]
 8002c9e:	f019 5f80 	tst.w	r9, #268435456	@ 0x10000000
 8002ca2:	d054      	beq.n	8002d4e <HAL_GPIO_Init+0x13a>
 8002ca4:	f8dc 2018 	ldr.w	r2, [ip, #24]
 8002ca8:	f026 0703 	bic.w	r7, r6, #3
 8002cac:	f042 0201 	orr.w	r2, r2, #1
 8002cb0:	f8cc 2018 	str.w	r2, [ip, #24]
 8002cb4:	f8dc 2018 	ldr.w	r2, [ip, #24]
 8002cb8:	f107 4780 	add.w	r7, r7, #1073741824	@ 0x40000000
 8002cbc:	f002 0201 	and.w	r2, r2, #1
 8002cc0:	9201      	str	r2, [sp, #4]
 8002cc2:	f507 3780 	add.w	r7, r7, #65536	@ 0x10000
 8002cc6:	f006 0a03 	and.w	sl, r6, #3
 8002cca:	9a01      	ldr	r2, [sp, #4]
 8002ccc:	ea4f 0a8a 	mov.w	sl, sl, lsl #2
 8002cd0:	68ba      	ldr	r2, [r7, #8]
 8002cd2:	fa0b fb0a 	lsl.w	fp, fp, sl
 8002cd6:	ea22 0b0b 	bic.w	fp, r2, fp
 8002cda:	4a3e      	ldr	r2, [pc, #248]	@ (8002dd4 <HAL_GPIO_Init+0x1c0>)
 8002cdc:	4290      	cmp	r0, r2
 8002cde:	d066      	beq.n	8002dae <HAL_GPIO_Init+0x19a>
 8002ce0:	f502 6280 	add.w	r2, r2, #1024	@ 0x400
 8002ce4:	4290      	cmp	r0, r2
 8002ce6:	d064      	beq.n	8002db2 <HAL_GPIO_Init+0x19e>
 8002ce8:	f502 6280 	add.w	r2, r2, #1024	@ 0x400
 8002cec:	4290      	cmp	r0, r2
 8002cee:	d062      	beq.n	8002db6 <HAL_GPIO_Init+0x1a2>
 8002cf0:	f502 6280 	add.w	r2, r2, #1024	@ 0x400
 8002cf4:	4290      	cmp	r0, r2
 8002cf6:	d060      	beq.n	8002dba <HAL_GPIO_Init+0x1a6>
 8002cf8:	f502 6280 	add.w	r2, r2, #1024	@ 0x400
 8002cfc:	4290      	cmp	r0, r2
 8002cfe:	d05e      	beq.n	8002dbe <HAL_GPIO_Init+0x1aa>
 8002d00:	f502 6280 	add.w	r2, r2, #1024	@ 0x400
 8002d04:	4290      	cmp	r0, r2
 8002d06:	bf14      	ite	ne
 8002d08:	2206      	movne	r2, #6
 8002d0a:	2205      	moveq	r2, #5
 8002d0c:	fa02 f20a 	lsl.w	r2, r2, sl
 8002d10:	ea42 020b 	orr.w	r2, r2, fp
 8002d14:	60ba      	str	r2, [r7, #8]
 8002d16:	689a      	ldr	r2, [r3, #8]
 8002d18:	f419 1f80 	tst.w	r9, #1048576	@ 0x100000
 8002d1c:	bf14      	ite	ne
 8002d1e:	432a      	orrne	r2, r5
 8002d20:	43aa      	biceq	r2, r5
 8002d22:	609a      	str	r2, [r3, #8]
 8002d24:	68da      	ldr	r2, [r3, #12]
 8002d26:	f419 1f00 	tst.w	r9, #2097152	@ 0x200000
 8002d2a:	bf14      	ite	ne
 8002d2c:	432a      	orrne	r2, r5
 8002d2e:	43aa      	biceq	r2, r5
 8002d30:	60da      	str	r2, [r3, #12]
 8002d32:	685a      	ldr	r2, [r3, #4]
 8002d34:	f419 3f00 	tst.w	r9, #131072	@ 0x20000
 8002d38:	bf14      	ite	ne
 8002d3a:	432a      	orrne	r2, r5
 8002d3c:	43aa      	biceq	r2, r5
 8002d3e:	605a      	str	r2, [r3, #4]
 8002d40:	681a      	ldr	r2, [r3, #0]
 8002d42:	f419 3f80 	tst.w	r9, #65536	@ 0x10000
 8002d46:	bf14      	ite	ne
 8002d48:	432a      	orrne	r2, r5
 8002d4a:	43aa      	biceq	r2, r5
 8002d4c:	601a      	str	r2, [r3, #0]
 8002d4e:	3601      	adds	r6, #1
 8002d50:	e76b      	b.n	8002c2a <HAL_GPIO_Init+0x16>
 8002d52:	f8df 9084 	ldr.w	r9, [pc, #132]	@ 8002dd8 <HAL_GPIO_Init+0x1c4>
 8002d56:	454a      	cmp	r2, r9
 8002d58:	d009      	beq.n	8002d6e <HAL_GPIO_Init+0x15a>
 8002d5a:	d811      	bhi.n	8002d80 <HAL_GPIO_Init+0x16c>
 8002d5c:	f5a9 1980 	sub.w	r9, r9, #1048576	@ 0x100000
 8002d60:	454a      	cmp	r2, r9
 8002d62:	d004      	beq.n	8002d6e <HAL_GPIO_Init+0x15a>
 8002d64:	4572      	cmp	r2, lr
 8002d66:	d002      	beq.n	8002d6e <HAL_GPIO_Init+0x15a>
 8002d68:	4542      	cmp	r2, r8
 8002d6a:	f47f af7f 	bne.w	8002c6c <HAL_GPIO_Init+0x58>
 8002d6e:	688a      	ldr	r2, [r1, #8]
 8002d70:	b1da      	cbz	r2, 8002daa <HAL_GPIO_Init+0x196>
 8002d72:	2a01      	cmp	r2, #1
 8002d74:	f04f 0408 	mov.w	r4, #8
 8002d78:	bf0c      	ite	eq
 8002d7a:	6107      	streq	r7, [r0, #16]
 8002d7c:	6147      	strne	r7, [r0, #20]
 8002d7e:	e775      	b.n	8002c6c <HAL_GPIO_Init+0x58>
 8002d80:	f8df 9058 	ldr.w	r9, [pc, #88]	@ 8002ddc <HAL_GPIO_Init+0x1c8>
 8002d84:	454a      	cmp	r2, r9
 8002d86:	d0f2      	beq.n	8002d6e <HAL_GPIO_Init+0x15a>
 8002d88:	f509 3980 	add.w	r9, r9, #65536	@ 0x10000
 8002d8c:	454a      	cmp	r2, r9
 8002d8e:	e7ec      	b.n	8002d6a <HAL_GPIO_Init+0x156>
 8002d90:	68cc      	ldr	r4, [r1, #12]
 8002d92:	e76b      	b.n	8002c6c <HAL_GPIO_Init+0x58>
 8002d94:	68cc      	ldr	r4, [r1, #12]
 8002d96:	3404      	adds	r4, #4
 8002d98:	e768      	b.n	8002c6c <HAL_GPIO_Init+0x58>
 8002d9a:	68cc      	ldr	r4, [r1, #12]
 8002d9c:	3408      	adds	r4, #8
 8002d9e:	e765      	b.n	8002c6c <HAL_GPIO_Init+0x58>
 8002da0:	68cc      	ldr	r4, [r1, #12]
 8002da2:	340c      	adds	r4, #12
 8002da4:	e762      	b.n	8002c6c <HAL_GPIO_Init+0x58>
 8002da6:	2400      	movs	r4, #0
 8002da8:	e760      	b.n	8002c6c <HAL_GPIO_Init+0x58>
 8002daa:	2404      	movs	r4, #4
 8002dac:	e75e      	b.n	8002c6c <HAL_GPIO_Init+0x58>
 8002dae:	2200      	movs	r2, #0
 8002db0:	e7ac      	b.n	8002d0c <HAL_GPIO_Init+0xf8>
 8002db2:	2201      	movs	r2, #1
 8002db4:	e7aa      	b.n	8002d0c <HAL_GPIO_Init+0xf8>
 8002db6:	2202      	movs	r2, #2
 8002db8:	e7a8      	b.n	8002d0c <HAL_GPIO_Init+0xf8>
 8002dba:	2203      	movs	r2, #3
 8002dbc:	e7a6      	b.n	8002d0c <HAL_GPIO_Init+0xf8>
 8002dbe:	2204      	movs	r2, #4
 8002dc0:	e7a4      	b.n	8002d0c <HAL_GPIO_Init+0xf8>
 8002dc2:	bf00      	nop
 8002dc4:	40021000 	.word	0x40021000
 8002dc8:	40010400 	.word	0x40010400
 8002dcc:	10210000 	.word	0x10210000
 8002dd0:	10110000 	.word	0x10110000
 8002dd4:	40010800 	.word	0x40010800
 8002dd8:	10220000 	.word	0x10220000
 8002ddc:	10310000 	.word	0x10310000

08002de0 <HAL_GPIO_WritePin>:
 8002de0:	b10a      	cbz	r2, 8002de6 <HAL_GPIO_WritePin+0x6>
 8002de2:	6101      	str	r1, [r0, #16]
 8002de4:	4770      	bx	lr
 8002de6:	0409      	lsls	r1, r1, #16
 8002de8:	e7fb      	b.n	8002de2 <HAL_GPIO_WritePin+0x2>
	...

08002dec <HAL_RCC_OscConfig>:
 8002dec:	e92d 41f3 	stmdb	sp!, {r0, r1, r4, r5, r6, r7, r8, lr}
 8002df0:	4605      	mov	r5, r0
 8002df2:	b338      	cbz	r0, 8002e44 <HAL_RCC_OscConfig+0x58>
 8002df4:	6803      	ldr	r3, [r0, #0]
 8002df6:	07db      	lsls	r3, r3, #31
 8002df8:	d410      	bmi.n	8002e1c <HAL_RCC_OscConfig+0x30>
 8002dfa:	682b      	ldr	r3, [r5, #0]
 8002dfc:	079f      	lsls	r7, r3, #30
 8002dfe:	d45e      	bmi.n	8002ebe <HAL_RCC_OscConfig+0xd2>
 8002e00:	682b      	ldr	r3, [r5, #0]
 8002e02:	0719      	lsls	r1, r3, #28
 8002e04:	f100 8095 	bmi.w	8002f32 <HAL_RCC_OscConfig+0x146>
 8002e08:	682b      	ldr	r3, [r5, #0]
 8002e0a:	075a      	lsls	r2, r3, #29
 8002e0c:	f100 80c1 	bmi.w	8002f92 <HAL_RCC_OscConfig+0x1a6>
 8002e10:	69eb      	ldr	r3, [r5, #28]
 8002e12:	2b00      	cmp	r3, #0
 8002e14:	f040 812c 	bne.w	8003070 <HAL_RCC_OscConfig+0x284>
 8002e18:	2000      	movs	r0, #0
 8002e1a:	e029      	b.n	8002e70 <HAL_RCC_OscConfig+0x84>
 8002e1c:	4c90      	ldr	r4, [pc, #576]	@ (8003060 <HAL_RCC_OscConfig+0x274>)
 8002e1e:	6863      	ldr	r3, [r4, #4]
 8002e20:	f003 030c 	and.w	r3, r3, #12
 8002e24:	2b04      	cmp	r3, #4
 8002e26:	d007      	beq.n	8002e38 <HAL_RCC_OscConfig+0x4c>
 8002e28:	6863      	ldr	r3, [r4, #4]
 8002e2a:	f003 030c 	and.w	r3, r3, #12
 8002e2e:	2b08      	cmp	r3, #8
 8002e30:	d10a      	bne.n	8002e48 <HAL_RCC_OscConfig+0x5c>
 8002e32:	6863      	ldr	r3, [r4, #4]
 8002e34:	03de      	lsls	r6, r3, #15
 8002e36:	d507      	bpl.n	8002e48 <HAL_RCC_OscConfig+0x5c>
 8002e38:	6823      	ldr	r3, [r4, #0]
 8002e3a:	039c      	lsls	r4, r3, #14
 8002e3c:	d5dd      	bpl.n	8002dfa <HAL_RCC_OscConfig+0xe>
 8002e3e:	686b      	ldr	r3, [r5, #4]
 8002e40:	2b00      	cmp	r3, #0
 8002e42:	d1da      	bne.n	8002dfa <HAL_RCC_OscConfig+0xe>
 8002e44:	2001      	movs	r0, #1
 8002e46:	e013      	b.n	8002e70 <HAL_RCC_OscConfig+0x84>
 8002e48:	686b      	ldr	r3, [r5, #4]
 8002e4a:	f5b3 3f80 	cmp.w	r3, #65536	@ 0x10000
 8002e4e:	d112      	bne.n	8002e76 <HAL_RCC_OscConfig+0x8a>
 8002e50:	6823      	ldr	r3, [r4, #0]
 8002e52:	f443 3380 	orr.w	r3, r3, #65536	@ 0x10000
 8002e56:	6023      	str	r3, [r4, #0]
 8002e58:	f7ff fbf4 	bl	8002644 <HAL_GetTick>
 8002e5c:	4606      	mov	r6, r0
 8002e5e:	6823      	ldr	r3, [r4, #0]
 8002e60:	0398      	lsls	r0, r3, #14
 8002e62:	d4ca      	bmi.n	8002dfa <HAL_RCC_OscConfig+0xe>
 8002e64:	f7ff fbee 	bl	8002644 <HAL_GetTick>
 8002e68:	1b80      	subs	r0, r0, r6
 8002e6a:	2864      	cmp	r0, #100	@ 0x64
 8002e6c:	d9f7      	bls.n	8002e5e <HAL_RCC_OscConfig+0x72>
 8002e6e:	2003      	movs	r0, #3
 8002e70:	b002      	add	sp, #8
 8002e72:	e8bd 81f0 	ldmia.w	sp!, {r4, r5, r6, r7, r8, pc}
 8002e76:	b99b      	cbnz	r3, 8002ea0 <HAL_RCC_OscConfig+0xb4>
 8002e78:	6823      	ldr	r3, [r4, #0]
 8002e7a:	f423 3380 	bic.w	r3, r3, #65536	@ 0x10000
 8002e7e:	6023      	str	r3, [r4, #0]
 8002e80:	6823      	ldr	r3, [r4, #0]
 8002e82:	f423 2380 	bic.w	r3, r3, #262144	@ 0x40000
 8002e86:	6023      	str	r3, [r4, #0]
 8002e88:	f7ff fbdc 	bl	8002644 <HAL_GetTick>
 8002e8c:	4606      	mov	r6, r0
 8002e8e:	6823      	ldr	r3, [r4, #0]
 8002e90:	0399      	lsls	r1, r3, #14
 8002e92:	d5b2      	bpl.n	8002dfa <HAL_RCC_OscConfig+0xe>
 8002e94:	f7ff fbd6 	bl	8002644 <HAL_GetTick>
 8002e98:	1b80      	subs	r0, r0, r6
 8002e9a:	2864      	cmp	r0, #100	@ 0x64
 8002e9c:	d9f7      	bls.n	8002e8e <HAL_RCC_OscConfig+0xa2>
 8002e9e:	e7e6      	b.n	8002e6e <HAL_RCC_OscConfig+0x82>
 8002ea0:	f5b3 2fa0 	cmp.w	r3, #327680	@ 0x50000
 8002ea4:	6823      	ldr	r3, [r4, #0]
 8002ea6:	d103      	bne.n	8002eb0 <HAL_RCC_OscConfig+0xc4>
 8002ea8:	f443 2380 	orr.w	r3, r3, #262144	@ 0x40000
 8002eac:	6023      	str	r3, [r4, #0]
 8002eae:	e7cf      	b.n	8002e50 <HAL_RCC_OscConfig+0x64>
 8002eb0:	f423 3380 	bic.w	r3, r3, #65536	@ 0x10000
 8002eb4:	6023      	str	r3, [r4, #0]
 8002eb6:	6823      	ldr	r3, [r4, #0]
 8002eb8:	f423 2380 	bic.w	r3, r3, #262144	@ 0x40000
 8002ebc:	e7cb      	b.n	8002e56 <HAL_RCC_OscConfig+0x6a>
 8002ebe:	4c68      	ldr	r4, [pc, #416]	@ (8003060 <HAL_RCC_OscConfig+0x274>)
 8002ec0:	6863      	ldr	r3, [r4, #4]
 8002ec2:	f013 0f0c 	tst.w	r3, #12
 8002ec6:	d007      	beq.n	8002ed8 <HAL_RCC_OscConfig+0xec>
 8002ec8:	6863      	ldr	r3, [r4, #4]
 8002eca:	f003 030c 	and.w	r3, r3, #12
 8002ece:	2b08      	cmp	r3, #8
 8002ed0:	d110      	bne.n	8002ef4 <HAL_RCC_OscConfig+0x108>
 8002ed2:	6863      	ldr	r3, [r4, #4]
 8002ed4:	03da      	lsls	r2, r3, #15
 8002ed6:	d40d      	bmi.n	8002ef4 <HAL_RCC_OscConfig+0x108>
 8002ed8:	6823      	ldr	r3, [r4, #0]
 8002eda:	079b      	lsls	r3, r3, #30
 8002edc:	d502      	bpl.n	8002ee4 <HAL_RCC_OscConfig+0xf8>
 8002ede:	692b      	ldr	r3, [r5, #16]
 8002ee0:	2b01      	cmp	r3, #1
 8002ee2:	d1af      	bne.n	8002e44 <HAL_RCC_OscConfig+0x58>
 8002ee4:	6823      	ldr	r3, [r4, #0]
 8002ee6:	696a      	ldr	r2, [r5, #20]
 8002ee8:	f023 03f8 	bic.w	r3, r3, #248	@ 0xf8
 8002eec:	ea43 03c2 	orr.w	r3, r3, r2, lsl #3
 8002ef0:	6023      	str	r3, [r4, #0]
 8002ef2:	e785      	b.n	8002e00 <HAL_RCC_OscConfig+0x14>
 8002ef4:	692a      	ldr	r2, [r5, #16]
 8002ef6:	4b5b      	ldr	r3, [pc, #364]	@ (8003064 <HAL_RCC_OscConfig+0x278>)
 8002ef8:	b16a      	cbz	r2, 8002f16 <HAL_RCC_OscConfig+0x12a>
 8002efa:	2201      	movs	r2, #1
 8002efc:	601a      	str	r2, [r3, #0]
 8002efe:	f7ff fba1 	bl	8002644 <HAL_GetTick>
 8002f02:	4606      	mov	r6, r0
 8002f04:	6823      	ldr	r3, [r4, #0]
 8002f06:	079f      	lsls	r7, r3, #30
 8002f08:	d4ec      	bmi.n	8002ee4 <HAL_RCC_OscConfig+0xf8>
 8002f0a:	f7ff fb9b 	bl	8002644 <HAL_GetTick>
 8002f0e:	1b80      	subs	r0, r0, r6
 8002f10:	2802      	cmp	r0, #2
 8002f12:	d9f7      	bls.n	8002f04 <HAL_RCC_OscConfig+0x118>
 8002f14:	e7ab      	b.n	8002e6e <HAL_RCC_OscConfig+0x82>
 8002f16:	601a      	str	r2, [r3, #0]
 8002f18:	f7ff fb94 	bl	8002644 <HAL_GetTick>
 8002f1c:	4606      	mov	r6, r0
 8002f1e:	6823      	ldr	r3, [r4, #0]
 8002f20:	0798      	lsls	r0, r3, #30
 8002f22:	f57f af6d 	bpl.w	8002e00 <HAL_RCC_OscConfig+0x14>
 8002f26:	f7ff fb8d 	bl	8002644 <HAL_GetTick>
 8002f2a:	1b80      	subs	r0, r0, r6
 8002f2c:	2802      	cmp	r0, #2
 8002f2e:	d9f6      	bls.n	8002f1e <HAL_RCC_OscConfig+0x132>
 8002f30:	e79d      	b.n	8002e6e <HAL_RCC_OscConfig+0x82>
 8002f32:	69aa      	ldr	r2, [r5, #24]
 8002f34:	4e4a      	ldr	r6, [pc, #296]	@ (8003060 <HAL_RCC_OscConfig+0x274>)
 8002f36:	4b4b      	ldr	r3, [pc, #300]	@ (8003064 <HAL_RCC_OscConfig+0x278>)
 8002f38:	b1e2      	cbz	r2, 8002f74 <HAL_RCC_OscConfig+0x188>
 8002f3a:	2201      	movs	r2, #1
 8002f3c:	f8c3 2480 	str.w	r2, [r3, #1152]	@ 0x480
 8002f40:	f7ff fb80 	bl	8002644 <HAL_GetTick>
 8002f44:	4604      	mov	r4, r0
 8002f46:	6a73      	ldr	r3, [r6, #36]	@ 0x24
 8002f48:	079b      	lsls	r3, r3, #30
 8002f4a:	d50d      	bpl.n	8002f68 <HAL_RCC_OscConfig+0x17c>
 8002f4c:	f44f 52fa 	mov.w	r2, #8000	@ 0x1f40
 8002f50:	4b45      	ldr	r3, [pc, #276]	@ (8003068 <HAL_RCC_OscConfig+0x27c>)
 8002f52:	681b      	ldr	r3, [r3, #0]
 8002f54:	fbb3 f3f2 	udiv	r3, r3, r2
 8002f58:	9301      	str	r3, [sp, #4]
 8002f5a:	bf00      	nop
 8002f5c:	9b01      	ldr	r3, [sp, #4]
 8002f5e:	1e5a      	subs	r2, r3, #1
 8002f60:	9201      	str	r2, [sp, #4]
 8002f62:	2b00      	cmp	r3, #0
 8002f64:	d1f9      	bne.n	8002f5a <HAL_RCC_OscConfig+0x16e>
 8002f66:	e74f      	b.n	8002e08 <HAL_RCC_OscConfig+0x1c>
 8002f68:	f7ff fb6c 	bl	8002644 <HAL_GetTick>
 8002f6c:	1b00      	subs	r0, r0, r4
 8002f6e:	2802      	cmp	r0, #2
 8002f70:	d9e9      	bls.n	8002f46 <HAL_RCC_OscConfig+0x15a>
 8002f72:	e77c      	b.n	8002e6e <HAL_RCC_OscConfig+0x82>
 8002f74:	f8c3 2480 	str.w	r2, [r3, #1152]	@ 0x480
 8002f78:	f7ff fb64 	bl	8002644 <HAL_GetTick>
 8002f7c:	4604      	mov	r4, r0
 8002f7e:	6a73      	ldr	r3, [r6, #36]	@ 0x24
 8002f80:	079f      	lsls	r7, r3, #30
 8002f82:	f57f af41 	bpl.w	8002e08 <HAL_RCC_OscConfig+0x1c>
 8002f86:	f7ff fb5d 	bl	8002644 <HAL_GetTick>
 8002f8a:	1b00      	subs	r0, r0, r4
 8002f8c:	2802      	cmp	r0, #2
 8002f8e:	d9f6      	bls.n	8002f7e <HAL_RCC_OscConfig+0x192>
 8002f90:	e76d      	b.n	8002e6e <HAL_RCC_OscConfig+0x82>
 8002f92:	4c33      	ldr	r4, [pc, #204]	@ (8003060 <HAL_RCC_OscConfig+0x274>)
 8002f94:	69e3      	ldr	r3, [r4, #28]
 8002f96:	00d8      	lsls	r0, r3, #3
 8002f98:	d424      	bmi.n	8002fe4 <HAL_RCC_OscConfig+0x1f8>
 8002f9a:	2701      	movs	r7, #1
 8002f9c:	69e3      	ldr	r3, [r4, #28]
 8002f9e:	f043 5380 	orr.w	r3, r3, #268435456	@ 0x10000000
 8002fa2:	61e3      	str	r3, [r4, #28]
 8002fa4:	69e3      	ldr	r3, [r4, #28]
 8002fa6:	f003 5380 	and.w	r3, r3, #268435456	@ 0x10000000
 8002faa:	9300      	str	r3, [sp, #0]
 8002fac:	9b00      	ldr	r3, [sp, #0]
 8002fae:	4e2f      	ldr	r6, [pc, #188]	@ (800306c <HAL_RCC_OscConfig+0x280>)
 8002fb0:	6833      	ldr	r3, [r6, #0]
 8002fb2:	05d9      	lsls	r1, r3, #23
 8002fb4:	d518      	bpl.n	8002fe8 <HAL_RCC_OscConfig+0x1fc>
 8002fb6:	68eb      	ldr	r3, [r5, #12]
 8002fb8:	2b01      	cmp	r3, #1
 8002fba:	d126      	bne.n	800300a <HAL_RCC_OscConfig+0x21e>
 8002fbc:	6a23      	ldr	r3, [r4, #32]
 8002fbe:	f043 0301 	orr.w	r3, r3, #1
 8002fc2:	6223      	str	r3, [r4, #32]
 8002fc4:	f7ff fb3e 	bl	8002644 <HAL_GetTick>
 8002fc8:	f241 3888 	movw	r8, #5000	@ 0x1388
 8002fcc:	4606      	mov	r6, r0
 8002fce:	6a23      	ldr	r3, [r4, #32]
 8002fd0:	079b      	lsls	r3, r3, #30
 8002fd2:	d53f      	bpl.n	8003054 <HAL_RCC_OscConfig+0x268>
 8002fd4:	2f00      	cmp	r7, #0
 8002fd6:	f43f af1b 	beq.w	8002e10 <HAL_RCC_OscConfig+0x24>
 8002fda:	69e3      	ldr	r3, [r4, #28]
 8002fdc:	f023 5380 	bic.w	r3, r3, #268435456	@ 0x10000000
 8002fe0:	61e3      	str	r3, [r4, #28]
 8002fe2:	e715      	b.n	8002e10 <HAL_RCC_OscConfig+0x24>
 8002fe4:	2700      	movs	r7, #0
 8002fe6:	e7e2      	b.n	8002fae <HAL_RCC_OscConfig+0x1c2>
 8002fe8:	6833      	ldr	r3, [r6, #0]
 8002fea:	f443 7380 	orr.w	r3, r3, #256	@ 0x100
 8002fee:	6033      	str	r3, [r6, #0]
 8002ff0:	f7ff fb28 	bl	8002644 <HAL_GetTick>
 8002ff4:	4680      	mov	r8, r0
 8002ff6:	6833      	ldr	r3, [r6, #0]
 8002ff8:	05da      	lsls	r2, r3, #23
 8002ffa:	d4dc      	bmi.n	8002fb6 <HAL_RCC_OscConfig+0x1ca>
 8002ffc:	f7ff fb22 	bl	8002644 <HAL_GetTick>
 8003000:	eba0 0008 	sub.w	r0, r0, r8
 8003004:	2864      	cmp	r0, #100	@ 0x64
 8003006:	d9f6      	bls.n	8002ff6 <HAL_RCC_OscConfig+0x20a>
 8003008:	e731      	b.n	8002e6e <HAL_RCC_OscConfig+0x82>
 800300a:	b9ab      	cbnz	r3, 8003038 <HAL_RCC_OscConfig+0x24c>
 800300c:	6a23      	ldr	r3, [r4, #32]
 800300e:	f241 3888 	movw	r8, #5000	@ 0x1388
 8003012:	f023 0301 	bic.w	r3, r3, #1
 8003016:	6223      	str	r3, [r4, #32]
 8003018:	6a23      	ldr	r3, [r4, #32]
 800301a:	f023 0304 	bic.w	r3, r3, #4
 800301e:	6223      	str	r3, [r4, #32]
 8003020:	f7ff fb10 	bl	8002644 <HAL_GetTick>
 8003024:	4606      	mov	r6, r0
 8003026:	6a23      	ldr	r3, [r4, #32]
 8003028:	0798      	lsls	r0, r3, #30
 800302a:	d5d3      	bpl.n	8002fd4 <HAL_RCC_OscConfig+0x1e8>
 800302c:	f7ff fb0a 	bl	8002644 <HAL_GetTick>
 8003030:	1b80      	subs	r0, r0, r6
 8003032:	4540      	cmp	r0, r8
 8003034:	d9f7      	bls.n	8003026 <HAL_RCC_OscConfig+0x23a>
 8003036:	e71a      	b.n	8002e6e <HAL_RCC_OscConfig+0x82>
 8003038:	2b05      	cmp	r3, #5
 800303a:	6a23      	ldr	r3, [r4, #32]
 800303c:	d103      	bne.n	8003046 <HAL_RCC_OscConfig+0x25a>
 800303e:	f043 0304 	orr.w	r3, r3, #4
 8003042:	6223      	str	r3, [r4, #32]
 8003044:	e7ba      	b.n	8002fbc <HAL_RCC_OscConfig+0x1d0>
 8003046:	f023 0301 	bic.w	r3, r3, #1
 800304a:	6223      	str	r3, [r4, #32]
 800304c:	6a23      	ldr	r3, [r4, #32]
 800304e:	f023 0304 	bic.w	r3, r3, #4
 8003052:	e7b6      	b.n	8002fc2 <HAL_RCC_OscConfig+0x1d6>
 8003054:	f7ff faf6 	bl	8002644 <HAL_GetTick>
 8003058:	1b80      	subs	r0, r0, r6
 800305a:	4540      	cmp	r0, r8
 800305c:	d9b7      	bls.n	8002fce <HAL_RCC_OscConfig+0x1e2>
 800305e:	e706      	b.n	8002e6e <HAL_RCC_OscConfig+0x82>
 8003060:	40021000 	.word	0x40021000
 8003064:	42420000 	.word	0x42420000
 8003068:	20000010 	.word	0x20000010
 800306c:	40007000 	.word	0x40007000
 8003070:	4c2a      	ldr	r4, [pc, #168]	@ (800311c <HAL_RCC_OscConfig+0x330>)
 8003072:	6862      	ldr	r2, [r4, #4]
 8003074:	f002 020c 	and.w	r2, r2, #12
 8003078:	2a08      	cmp	r2, #8
 800307a:	d03e      	beq.n	80030fa <HAL_RCC_OscConfig+0x30e>
 800307c:	2200      	movs	r2, #0
 800307e:	2b02      	cmp	r3, #2
 8003080:	4b27      	ldr	r3, [pc, #156]	@ (8003120 <HAL_RCC_OscConfig+0x334>)
 8003082:	661a      	str	r2, [r3, #96]	@ 0x60
 8003084:	d12c      	bne.n	80030e0 <HAL_RCC_OscConfig+0x2f4>
 8003086:	f7ff fadd 	bl	8002644 <HAL_GetTick>
 800308a:	4606      	mov	r6, r0
 800308c:	6823      	ldr	r3, [r4, #0]
 800308e:	0199      	lsls	r1, r3, #6
 8003090:	d420      	bmi.n	80030d4 <HAL_RCC_OscConfig+0x2e8>
 8003092:	6a2b      	ldr	r3, [r5, #32]
 8003094:	f5b3 3f80 	cmp.w	r3, #65536	@ 0x10000
 8003098:	d105      	bne.n	80030a6 <HAL_RCC_OscConfig+0x2ba>
 800309a:	6862      	ldr	r2, [r4, #4]
 800309c:	68a9      	ldr	r1, [r5, #8]
 800309e:	f422 3200 	bic.w	r2, r2, #131072	@ 0x20000
 80030a2:	430a      	orrs	r2, r1
 80030a4:	6062      	str	r2, [r4, #4]
 80030a6:	6a69      	ldr	r1, [r5, #36]	@ 0x24
 80030a8:	6862      	ldr	r2, [r4, #4]
 80030aa:	430b      	orrs	r3, r1
 80030ac:	f422 1274 	bic.w	r2, r2, #3997696	@ 0x3d0000
 80030b0:	4313      	orrs	r3, r2
 80030b2:	2201      	movs	r2, #1
 80030b4:	6063      	str	r3, [r4, #4]
 80030b6:	4b1a      	ldr	r3, [pc, #104]	@ (8003120 <HAL_RCC_OscConfig+0x334>)
 80030b8:	661a      	str	r2, [r3, #96]	@ 0x60
 80030ba:	f7ff fac3 	bl	8002644 <HAL_GetTick>
 80030be:	4605      	mov	r5, r0
 80030c0:	6823      	ldr	r3, [r4, #0]
 80030c2:	019a      	lsls	r2, r3, #6
 80030c4:	f53f aea8 	bmi.w	8002e18 <HAL_RCC_OscConfig+0x2c>
 80030c8:	f7ff fabc 	bl	8002644 <HAL_GetTick>
 80030cc:	1b40      	subs	r0, r0, r5
 80030ce:	2802      	cmp	r0, #2
 80030d0:	d9f6      	bls.n	80030c0 <HAL_RCC_OscConfig+0x2d4>
 80030d2:	e6cc      	b.n	8002e6e <HAL_RCC_OscConfig+0x82>
 80030d4:	f7ff fab6 	bl	8002644 <HAL_GetTick>
 80030d8:	1b80      	subs	r0, r0, r6
 80030da:	2802      	cmp	r0, #2
 80030dc:	d9d6      	bls.n	800308c <HAL_RCC_OscConfig+0x2a0>
 80030de:	e6c6      	b.n	8002e6e <HAL_RCC_OscConfig+0x82>
 80030e0:	f7ff fab0 	bl	8002644 <HAL_GetTick>
 80030e4:	4605      	mov	r5, r0
 80030e6:	6823      	ldr	r3, [r4, #0]
 80030e8:	019b      	lsls	r3, r3, #6
 80030ea:	f57f ae95 	bpl.w	8002e18 <HAL_RCC_OscConfig+0x2c>
 80030ee:	f7ff faa9 	bl	8002644 <HAL_GetTick>
 80030f2:	1b40      	subs	r0, r0, r5
 80030f4:	2802      	cmp	r0, #2
 80030f6:	d9f6      	bls.n	80030e6 <HAL_RCC_OscConfig+0x2fa>
 80030f8:	e6b9      	b.n	8002e6e <HAL_RCC_OscConfig+0x82>
 80030fa:	2b01      	cmp	r3, #1
 80030fc:	f43f aea2 	beq.w	8002e44 <HAL_RCC_OscConfig+0x58>
 8003100:	6860      	ldr	r0, [r4, #4]
 8003102:	6a2b      	ldr	r3, [r5, #32]
 8003104:	f400 3280 	and.w	r2, r0, #65536	@ 0x10000
 8003108:	429a      	cmp	r2, r3
 800310a:	f47f ae9b 	bne.w	8002e44 <HAL_RCC_OscConfig+0x58>
 800310e:	6a6b      	ldr	r3, [r5, #36]	@ 0x24
 8003110:	f400 1070 	and.w	r0, r0, #3932160	@ 0x3c0000
 8003114:	1ac0      	subs	r0, r0, r3
 8003116:	bf18      	it	ne
 8003118:	2001      	movne	r0, #1
 800311a:	e6a9      	b.n	8002e70 <HAL_RCC_OscConfig+0x84>
 800311c:	40021000 	.word	0x40021000
 8003120:	42420000 	.word	0x42420000

08003124 <HAL_RCC_GetSysClockFreq>:
 8003124:	4a0d      	ldr	r2, [pc, #52]	@ (800315c <HAL_RCC_GetSysClockFreq+0x38>)
 8003126:	6853      	ldr	r3, [r2, #4]
 8003128:	f003 010c 	and.w	r1, r3, #12
 800312c:	2908      	cmp	r1, #8
 800312e:	d112      	bne.n	8003156 <HAL_RCC_GetSysClockFreq+0x32>
 8003130:	480b      	ldr	r0, [pc, #44]	@ (8003160 <HAL_RCC_GetSysClockFreq+0x3c>)
 8003132:	f3c3 4183 	ubfx	r1, r3, #18, #4
 8003136:	03db      	lsls	r3, r3, #15
 8003138:	5c40      	ldrb	r0, [r0, r1]
 800313a:	d509      	bpl.n	8003150 <HAL_RCC_GetSysClockFreq+0x2c>
 800313c:	6853      	ldr	r3, [r2, #4]
 800313e:	4a09      	ldr	r2, [pc, #36]	@ (8003164 <HAL_RCC_GetSysClockFreq+0x40>)
 8003140:	f3c3 4340 	ubfx	r3, r3, #17, #1
 8003144:	4350      	muls	r0, r2
 8003146:	4a08      	ldr	r2, [pc, #32]	@ (8003168 <HAL_RCC_GetSysClockFreq+0x44>)
 8003148:	5cd3      	ldrb	r3, [r2, r3]
 800314a:	fbb0 f0f3 	udiv	r0, r0, r3
 800314e:	4770      	bx	lr
 8003150:	4b06      	ldr	r3, [pc, #24]	@ (800316c <HAL_RCC_GetSysClockFreq+0x48>)
 8003152:	4358      	muls	r0, r3
 8003154:	4770      	bx	lr
 8003156:	4803      	ldr	r0, [pc, #12]	@ (8003164 <HAL_RCC_GetSysClockFreq+0x40>)
 8003158:	4770      	bx	lr
 800315a:	bf00      	nop
 800315c:	40021000 	.word	0x40021000
 8003160:	08004b22 	.word	0x08004b22
 8003164:	007a1200 	.word	0x007a1200
 8003168:	08004b20 	.word	0x08004b20
 800316c:	003d0900 	.word	0x003d0900

08003170 <HAL_RCC_ClockConfig>:
 8003170:	e92d 41f0 	stmdb	sp!, {r4, r5, r6, r7, r8, lr}
 8003174:	460d      	mov	r5, r1
 8003176:	4604      	mov	r4, r0
 8003178:	b910      	cbnz	r0, 8003180 <HAL_RCC_ClockConfig+0x10>
 800317a:	2001      	movs	r0, #1
 800317c:	e8bd 81f0 	ldmia.w	sp!, {r4, r5, r6, r7, r8, pc}
 8003180:	4a44      	ldr	r2, [pc, #272]	@ (8003294 <HAL_RCC_ClockConfig+0x124>)
 8003182:	6813      	ldr	r3, [r2, #0]
 8003184:	f003 0307 	and.w	r3, r3, #7
 8003188:	428b      	cmp	r3, r1
 800318a:	d328      	bcc.n	80031de <HAL_RCC_ClockConfig+0x6e>
 800318c:	6821      	ldr	r1, [r4, #0]
 800318e:	078e      	lsls	r6, r1, #30
 8003190:	d430      	bmi.n	80031f4 <HAL_RCC_ClockConfig+0x84>
 8003192:	07ca      	lsls	r2, r1, #31
 8003194:	d443      	bmi.n	800321e <HAL_RCC_ClockConfig+0xae>
 8003196:	4a3f      	ldr	r2, [pc, #252]	@ (8003294 <HAL_RCC_ClockConfig+0x124>)
 8003198:	6813      	ldr	r3, [r2, #0]
 800319a:	f003 0307 	and.w	r3, r3, #7
 800319e:	42ab      	cmp	r3, r5
 80031a0:	d865      	bhi.n	800326e <HAL_RCC_ClockConfig+0xfe>
 80031a2:	6822      	ldr	r2, [r4, #0]
 80031a4:	4d3c      	ldr	r5, [pc, #240]	@ (8003298 <HAL_RCC_ClockConfig+0x128>)
 80031a6:	f012 0f04 	tst.w	r2, #4
 80031aa:	d16c      	bne.n	8003286 <HAL_RCC_ClockConfig+0x116>
 80031ac:	0713      	lsls	r3, r2, #28
 80031ae:	d506      	bpl.n	80031be <HAL_RCC_ClockConfig+0x4e>
 80031b0:	686b      	ldr	r3, [r5, #4]
 80031b2:	6922      	ldr	r2, [r4, #16]
 80031b4:	f423 5360 	bic.w	r3, r3, #14336	@ 0x3800
 80031b8:	ea43 03c2 	orr.w	r3, r3, r2, lsl #3
 80031bc:	606b      	str	r3, [r5, #4]
 80031be:	f7ff ffb1 	bl	8003124 <HAL_RCC_GetSysClockFreq>
 80031c2:	686b      	ldr	r3, [r5, #4]
 80031c4:	4a35      	ldr	r2, [pc, #212]	@ (800329c <HAL_RCC_ClockConfig+0x12c>)
 80031c6:	f3c3 1303 	ubfx	r3, r3, #4, #4
 80031ca:	5cd3      	ldrb	r3, [r2, r3]
 80031cc:	40d8      	lsrs	r0, r3
 80031ce:	4b34      	ldr	r3, [pc, #208]	@ (80032a0 <HAL_RCC_ClockConfig+0x130>)
 80031d0:	6018      	str	r0, [r3, #0]
 80031d2:	4b34      	ldr	r3, [pc, #208]	@ (80032a4 <HAL_RCC_ClockConfig+0x134>)
 80031d4:	6818      	ldr	r0, [r3, #0]
 80031d6:	f7ff f9f3 	bl	80025c0 <HAL_InitTick>
 80031da:	2000      	movs	r0, #0
 80031dc:	e7ce      	b.n	800317c <HAL_RCC_ClockConfig+0xc>
 80031de:	6813      	ldr	r3, [r2, #0]
 80031e0:	f023 0307 	bic.w	r3, r3, #7
 80031e4:	430b      	orrs	r3, r1
 80031e6:	6013      	str	r3, [r2, #0]
 80031e8:	6813      	ldr	r3, [r2, #0]
 80031ea:	f003 0307 	and.w	r3, r3, #7
 80031ee:	428b      	cmp	r3, r1
 80031f0:	d1c3      	bne.n	800317a <HAL_RCC_ClockConfig+0xa>
 80031f2:	e7cb      	b.n	800318c <HAL_RCC_ClockConfig+0x1c>
 80031f4:	4b28      	ldr	r3, [pc, #160]	@ (8003298 <HAL_RCC_ClockConfig+0x128>)
 80031f6:	f011 0f04 	tst.w	r1, #4
 80031fa:	bf1e      	ittt	ne
 80031fc:	685a      	ldrne	r2, [r3, #4]
 80031fe:	f442 62e0 	orrne.w	r2, r2, #1792	@ 0x700
 8003202:	605a      	strne	r2, [r3, #4]
 8003204:	0708      	lsls	r0, r1, #28
 8003206:	bf42      	ittt	mi
 8003208:	685a      	ldrmi	r2, [r3, #4]
 800320a:	f442 5260 	orrmi.w	r2, r2, #14336	@ 0x3800
 800320e:	605a      	strmi	r2, [r3, #4]
 8003210:	685a      	ldr	r2, [r3, #4]
 8003212:	68a0      	ldr	r0, [r4, #8]
 8003214:	f022 02f0 	bic.w	r2, r2, #240	@ 0xf0
 8003218:	4302      	orrs	r2, r0
 800321a:	605a      	str	r2, [r3, #4]
 800321c:	e7b9      	b.n	8003192 <HAL_RCC_ClockConfig+0x22>
 800321e:	6862      	ldr	r2, [r4, #4]
 8003220:	4e1d      	ldr	r6, [pc, #116]	@ (8003298 <HAL_RCC_ClockConfig+0x128>)
 8003222:	2a01      	cmp	r2, #1
 8003224:	6833      	ldr	r3, [r6, #0]
 8003226:	d11a      	bne.n	800325e <HAL_RCC_ClockConfig+0xee>
 8003228:	f413 3f00 	tst.w	r3, #131072	@ 0x20000
 800322c:	d0a5      	beq.n	800317a <HAL_RCC_ClockConfig+0xa>
 800322e:	6873      	ldr	r3, [r6, #4]
 8003230:	f241 3888 	movw	r8, #5000	@ 0x1388
 8003234:	f023 0303 	bic.w	r3, r3, #3
 8003238:	4313      	orrs	r3, r2
 800323a:	6073      	str	r3, [r6, #4]
 800323c:	f7ff fa02 	bl	8002644 <HAL_GetTick>
 8003240:	4607      	mov	r7, r0
 8003242:	6873      	ldr	r3, [r6, #4]
 8003244:	6862      	ldr	r2, [r4, #4]
 8003246:	f003 030c 	and.w	r3, r3, #12
 800324a:	ebb3 0f82 	cmp.w	r3, r2, lsl #2
 800324e:	d0a2      	beq.n	8003196 <HAL_RCC_ClockConfig+0x26>
 8003250:	f7ff f9f8 	bl	8002644 <HAL_GetTick>
 8003254:	1bc0      	subs	r0, r0, r7
 8003256:	4540      	cmp	r0, r8
 8003258:	d9f3      	bls.n	8003242 <HAL_RCC_ClockConfig+0xd2>
 800325a:	2003      	movs	r0, #3
 800325c:	e78e      	b.n	800317c <HAL_RCC_ClockConfig+0xc>
 800325e:	2a02      	cmp	r2, #2
 8003260:	d102      	bne.n	8003268 <HAL_RCC_ClockConfig+0xf8>
 8003262:	f013 7f00 	tst.w	r3, #33554432	@ 0x2000000
 8003266:	e7e1      	b.n	800322c <HAL_RCC_ClockConfig+0xbc>
 8003268:	f013 0f02 	tst.w	r3, #2
 800326c:	e7de      	b.n	800322c <HAL_RCC_ClockConfig+0xbc>
 800326e:	6813      	ldr	r3, [r2, #0]
 8003270:	f023 0307 	bic.w	r3, r3, #7
 8003274:	432b      	orrs	r3, r5
 8003276:	6013      	str	r3, [r2, #0]
 8003278:	6813      	ldr	r3, [r2, #0]
 800327a:	f003 0307 	and.w	r3, r3, #7
 800327e:	42ab      	cmp	r3, r5
 8003280:	f47f af7b 	bne.w	800317a <HAL_RCC_ClockConfig+0xa>
 8003284:	e78d      	b.n	80031a2 <HAL_RCC_ClockConfig+0x32>
 8003286:	686b      	ldr	r3, [r5, #4]
 8003288:	68e1      	ldr	r1, [r4, #12]
 800328a:	f423 63e0 	bic.w	r3, r3, #1792	@ 0x700
 800328e:	430b      	orrs	r3, r1
 8003290:	606b      	str	r3, [r5, #4]
 8003292:	e78b      	b.n	80031ac <HAL_RCC_ClockConfig+0x3c>
 8003294:	40022000 	.word	0x40022000
 8003298:	40021000 	.word	0x40021000
 800329c:	08004b10 	.word	0x08004b10
 80032a0:	20000010 	.word	0x20000010
 80032a4:	20000018 	.word	0x20000018

080032a8 <HAL_RCC_GetPCLK1Freq>:
 80032a8:	4b04      	ldr	r3, [pc, #16]	@ (80032bc <HAL_RCC_GetPCLK1Freq+0x14>)
 80032aa:	4a05      	ldr	r2, [pc, #20]	@ (80032c0 <HAL_RCC_GetPCLK1Freq+0x18>)
 80032ac:	685b      	ldr	r3, [r3, #4]
 80032ae:	f3c3 2302 	ubfx	r3, r3, #8, #3
 80032b2:	5cd3      	ldrb	r3, [r2, r3]
 80032b4:	4a03      	ldr	r2, [pc, #12]	@ (80032c4 <HAL_RCC_GetPCLK1Freq+0x1c>)
 80032b6:	6810      	ldr	r0, [r2, #0]
 80032b8:	40d8      	lsrs	r0, r3
 80032ba:	4770      	bx	lr
 80032bc:	40021000 	.word	0x40021000
 80032c0:	08004b08 	.word	0x08004b08
 80032c4:	20000010 	.word	0x20000010

080032c8 <HAL_RCC_GetPCLK2Freq>:
 80032c8:	4b04      	ldr	r3, [pc, #16]	@ (80032dc <HAL_RCC_GetPCLK2Freq+0x14>)
 80032ca:	4a05      	ldr	r2, [pc, #20]	@ (80032e0 <HAL_RCC_GetPCLK2Freq+0x18>)
 80032cc:	685b      	ldr	r3, [r3, #4]
 80032ce:	f3c3 23c2 	ubfx	r3, r3, #11, #3
 80032d2:	5cd3      	ldrb	r3, [r2, r3]
 80032d4:	4a03      	ldr	r2, [pc, #12]	@ (80032e4 <HAL_RCC_GetPCLK2Freq+0x1c>)
 80032d6:	6810      	ldr	r0, [r2, #0]
 80032d8:	40d8      	lsrs	r0, r3
 80032da:	4770      	bx	lr
 80032dc:	40021000 	.word	0x40021000
 80032e0:	08004b08 	.word	0x08004b08
 80032e4:	20000010 	.word	0x20000010

080032e8 <TIM_OC1_SetConfig>:
 80032e8:	6a03      	ldr	r3, [r0, #32]
 80032ea:	6a02      	ldr	r2, [r0, #32]
 80032ec:	b570      	push	{r4, r5, r6, lr}
 80032ee:	f022 0201 	bic.w	r2, r2, #1
 80032f2:	6202      	str	r2, [r0, #32]
 80032f4:	6844      	ldr	r4, [r0, #4]
 80032f6:	6982      	ldr	r2, [r0, #24]
 80032f8:	680d      	ldr	r5, [r1, #0]
 80032fa:	f022 0273 	bic.w	r2, r2, #115	@ 0x73
 80032fe:	432a      	orrs	r2, r5
 8003300:	688d      	ldr	r5, [r1, #8]
 8003302:	f023 0302 	bic.w	r3, r3, #2
 8003306:	432b      	orrs	r3, r5
 8003308:	4d0e      	ldr	r5, [pc, #56]	@ (8003344 <TIM_OC1_SetConfig+0x5c>)
 800330a:	42a8      	cmp	r0, r5
 800330c:	d002      	beq.n	8003314 <TIM_OC1_SetConfig+0x2c>
 800330e:	4e0e      	ldr	r6, [pc, #56]	@ (8003348 <TIM_OC1_SetConfig+0x60>)
 8003310:	42b0      	cmp	r0, r6
 8003312:	d110      	bne.n	8003336 <TIM_OC1_SetConfig+0x4e>
 8003314:	68ce      	ldr	r6, [r1, #12]
 8003316:	f023 0308 	bic.w	r3, r3, #8
 800331a:	4333      	orrs	r3, r6
 800331c:	42a8      	cmp	r0, r5
 800331e:	f023 0304 	bic.w	r3, r3, #4
 8003322:	d002      	beq.n	800332a <TIM_OC1_SetConfig+0x42>
 8003324:	4d08      	ldr	r5, [pc, #32]	@ (8003348 <TIM_OC1_SetConfig+0x60>)
 8003326:	42a8      	cmp	r0, r5
 8003328:	d105      	bne.n	8003336 <TIM_OC1_SetConfig+0x4e>
 800332a:	e9d1 5605 	ldrd	r5, r6, [r1, #20]
 800332e:	f424 7440 	bic.w	r4, r4, #768	@ 0x300
 8003332:	4335      	orrs	r5, r6
 8003334:	432c      	orrs	r4, r5
 8003336:	6044      	str	r4, [r0, #4]
 8003338:	6182      	str	r2, [r0, #24]
 800333a:	684a      	ldr	r2, [r1, #4]
 800333c:	6342      	str	r2, [r0, #52]	@ 0x34
 800333e:	6203      	str	r3, [r0, #32]
 8003340:	bd70      	pop	{r4, r5, r6, pc}
 8003342:	bf00      	nop
 8003344:	40012c00 	.word	0x40012c00
 8003348:	40013400 	.word	0x40013400

0800334c <TIM_OC3_SetConfig>:
 800334c:	6a03      	ldr	r3, [r0, #32]
 800334e:	6a02      	ldr	r2, [r0, #32]
 8003350:	b570      	push	{r4, r5, r6, lr}
 8003352:	f422 7280 	bic.w	r2, r2, #256	@ 0x100
 8003356:	6202      	str	r2, [r0, #32]
 8003358:	6844      	ldr	r4, [r0, #4]
 800335a:	69c2      	ldr	r2, [r0, #28]
 800335c:	680d      	ldr	r5, [r1, #0]
 800335e:	f022 0273 	bic.w	r2, r2, #115	@ 0x73
 8003362:	432a      	orrs	r2, r5
 8003364:	688d      	ldr	r5, [r1, #8]
 8003366:	f423 7300 	bic.w	r3, r3, #512	@ 0x200
 800336a:	ea43 2305 	orr.w	r3, r3, r5, lsl #8
 800336e:	4d11      	ldr	r5, [pc, #68]	@ (80033b4 <TIM_OC3_SetConfig+0x68>)
 8003370:	42a8      	cmp	r0, r5
 8003372:	d003      	beq.n	800337c <TIM_OC3_SetConfig+0x30>
 8003374:	f505 6500 	add.w	r5, r5, #2048	@ 0x800
 8003378:	42a8      	cmp	r0, r5
 800337a:	d114      	bne.n	80033a6 <TIM_OC3_SetConfig+0x5a>
 800337c:	68cd      	ldr	r5, [r1, #12]
 800337e:	f423 6300 	bic.w	r3, r3, #2048	@ 0x800
 8003382:	ea43 2305 	orr.w	r3, r3, r5, lsl #8
 8003386:	4d0b      	ldr	r5, [pc, #44]	@ (80033b4 <TIM_OC3_SetConfig+0x68>)
 8003388:	f423 6380 	bic.w	r3, r3, #1024	@ 0x400
 800338c:	42a8      	cmp	r0, r5
 800338e:	d003      	beq.n	8003398 <TIM_OC3_SetConfig+0x4c>
 8003390:	f505 6500 	add.w	r5, r5, #2048	@ 0x800
 8003394:	42a8      	cmp	r0, r5
 8003396:	d106      	bne.n	80033a6 <TIM_OC3_SetConfig+0x5a>
 8003398:	e9d1 5605 	ldrd	r5, r6, [r1, #20]
 800339c:	f424 5440 	bic.w	r4, r4, #12288	@ 0x3000
 80033a0:	4335      	orrs	r5, r6
 80033a2:	ea44 1405 	orr.w	r4, r4, r5, lsl #4
 80033a6:	6044      	str	r4, [r0, #4]
 80033a8:	61c2      	str	r2, [r0, #28]
 80033aa:	684a      	ldr	r2, [r1, #4]
 80033ac:	63c2      	str	r2, [r0, #60]	@ 0x3c
 80033ae:	6203      	str	r3, [r0, #32]
 80033b0:	bd70      	pop	{r4, r5, r6, pc}
 80033b2:	bf00      	nop
 80033b4:	40012c00 	.word	0x40012c00

080033b8 <TIM_OC4_SetConfig>:
 80033b8:	6a03      	ldr	r3, [r0, #32]
 80033ba:	6a02      	ldr	r2, [r0, #32]
 80033bc:	b530      	push	{r4, r5, lr}
 80033be:	f422 5280 	bic.w	r2, r2, #4096	@ 0x1000
 80033c2:	6202      	str	r2, [r0, #32]
 80033c4:	6844      	ldr	r4, [r0, #4]
 80033c6:	69c2      	ldr	r2, [r0, #28]
 80033c8:	680d      	ldr	r5, [r1, #0]
 80033ca:	f422 42e6 	bic.w	r2, r2, #29440	@ 0x7300
 80033ce:	ea42 2205 	orr.w	r2, r2, r5, lsl #8
 80033d2:	688d      	ldr	r5, [r1, #8]
 80033d4:	f423 5300 	bic.w	r3, r3, #8192	@ 0x2000
 80033d8:	ea43 3305 	orr.w	r3, r3, r5, lsl #12
 80033dc:	4d08      	ldr	r5, [pc, #32]	@ (8003400 <TIM_OC4_SetConfig+0x48>)
 80033de:	42a8      	cmp	r0, r5
 80033e0:	d003      	beq.n	80033ea <TIM_OC4_SetConfig+0x32>
 80033e2:	f505 6500 	add.w	r5, r5, #2048	@ 0x800
 80033e6:	42a8      	cmp	r0, r5
 80033e8:	d104      	bne.n	80033f4 <TIM_OC4_SetConfig+0x3c>
 80033ea:	694d      	ldr	r5, [r1, #20]
 80033ec:	f424 4480 	bic.w	r4, r4, #16384	@ 0x4000
 80033f0:	ea44 1485 	orr.w	r4, r4, r5, lsl #6
 80033f4:	6044      	str	r4, [r0, #4]
 80033f6:	61c2      	str	r2, [r0, #28]
 80033f8:	684a      	ldr	r2, [r1, #4]
 80033fa:	6402      	str	r2, [r0, #64]	@ 0x40
 80033fc:	6203      	str	r3, [r0, #32]
 80033fe:	bd30      	pop	{r4, r5, pc}
 8003400:	40012c00 	.word	0x40012c00

08003404 <HAL_TIM_PWM_MspInit>:
 8003404:	4770      	bx	lr

08003406 <HAL_TIM_IC_MspInit>:
 8003406:	4770      	bx	lr

08003408 <HAL_TIM_PeriodElapsedCallback>:
 8003408:	4770      	bx	lr

0800340a <HAL_TIM_OC_DelayElapsedCallback>:
 800340a:	4770      	bx	lr

0800340c <HAL_TIM_PWM_PulseFinishedCallback>:
 800340c:	4770      	bx	lr

0800340e <HAL_TIM_TriggerCallback>:
 800340e:	4770      	bx	lr

08003410 <HAL_TIM_IRQHandler>:
 8003410:	6803      	ldr	r3, [r0, #0]
 8003412:	b510      	push	{r4, lr}
 8003414:	691a      	ldr	r2, [r3, #16]
 8003416:	4604      	mov	r4, r0
 8003418:	0791      	lsls	r1, r2, #30
 800341a:	d50e      	bpl.n	800343a <HAL_TIM_IRQHandler+0x2a>
 800341c:	68da      	ldr	r2, [r3, #12]
 800341e:	0792      	lsls	r2, r2, #30
 8003420:	d50b      	bpl.n	800343a <HAL_TIM_IRQHandler+0x2a>
 8003422:	f06f 0202 	mvn.w	r2, #2
 8003426:	611a      	str	r2, [r3, #16]
 8003428:	2201      	movs	r2, #1
 800342a:	7702      	strb	r2, [r0, #28]
 800342c:	699b      	ldr	r3, [r3, #24]
 800342e:	079b      	lsls	r3, r3, #30
 8003430:	d077      	beq.n	8003522 <HAL_TIM_IRQHandler+0x112>
 8003432:	f7fe f99d 	bl	8001770 <HAL_TIM_IC_CaptureCallback>
 8003436:	2300      	movs	r3, #0
 8003438:	7723      	strb	r3, [r4, #28]
 800343a:	6823      	ldr	r3, [r4, #0]
 800343c:	691a      	ldr	r2, [r3, #16]
 800343e:	0750      	lsls	r0, r2, #29
 8003440:	d510      	bpl.n	8003464 <HAL_TIM_IRQHandler+0x54>
 8003442:	68da      	ldr	r2, [r3, #12]
 8003444:	0751      	lsls	r1, r2, #29
 8003446:	d50d      	bpl.n	8003464 <HAL_TIM_IRQHandler+0x54>
 8003448:	f06f 0204 	mvn.w	r2, #4
 800344c:	611a      	str	r2, [r3, #16]
 800344e:	2202      	movs	r2, #2
 8003450:	7722      	strb	r2, [r4, #28]
 8003452:	699b      	ldr	r3, [r3, #24]
 8003454:	4620      	mov	r0, r4
 8003456:	f413 7f40 	tst.w	r3, #768	@ 0x300
 800345a:	d068      	beq.n	800352e <HAL_TIM_IRQHandler+0x11e>
 800345c:	f7fe f988 	bl	8001770 <HAL_TIM_IC_CaptureCallback>
 8003460:	2300      	movs	r3, #0
 8003462:	7723      	strb	r3, [r4, #28]
 8003464:	6823      	ldr	r3, [r4, #0]
 8003466:	691a      	ldr	r2, [r3, #16]
 8003468:	0712      	lsls	r2, r2, #28
 800346a:	d50f      	bpl.n	800348c <HAL_TIM_IRQHandler+0x7c>
 800346c:	68da      	ldr	r2, [r3, #12]
 800346e:	0710      	lsls	r0, r2, #28
 8003470:	d50c      	bpl.n	800348c <HAL_TIM_IRQHandler+0x7c>
 8003472:	f06f 0208 	mvn.w	r2, #8
 8003476:	611a      	str	r2, [r3, #16]
 8003478:	2204      	movs	r2, #4
 800347a:	7722      	strb	r2, [r4, #28]
 800347c:	69db      	ldr	r3, [r3, #28]
 800347e:	4620      	mov	r0, r4
 8003480:	0799      	lsls	r1, r3, #30
 8003482:	d05a      	beq.n	800353a <HAL_TIM_IRQHandler+0x12a>
 8003484:	f7fe f974 	bl	8001770 <HAL_TIM_IC_CaptureCallback>
 8003488:	2300      	movs	r3, #0
 800348a:	7723      	strb	r3, [r4, #28]
 800348c:	6823      	ldr	r3, [r4, #0]
 800348e:	691a      	ldr	r2, [r3, #16]
 8003490:	06d2      	lsls	r2, r2, #27
 8003492:	d510      	bpl.n	80034b6 <HAL_TIM_IRQHandler+0xa6>
 8003494:	68da      	ldr	r2, [r3, #12]
 8003496:	06d0      	lsls	r0, r2, #27
 8003498:	d50d      	bpl.n	80034b6 <HAL_TIM_IRQHandler+0xa6>
 800349a:	f06f 0210 	mvn.w	r2, #16
 800349e:	611a      	str	r2, [r3, #16]
 80034a0:	2208      	movs	r2, #8
 80034a2:	7722      	strb	r2, [r4, #28]
 80034a4:	69db      	ldr	r3, [r3, #28]
 80034a6:	4620      	mov	r0, r4
 80034a8:	f413 7f40 	tst.w	r3, #768	@ 0x300
 80034ac:	d04b      	beq.n	8003546 <HAL_TIM_IRQHandler+0x136>
 80034ae:	f7fe f95f 	bl	8001770 <HAL_TIM_IC_CaptureCallback>
 80034b2:	2300      	movs	r3, #0
 80034b4:	7723      	strb	r3, [r4, #28]
 80034b6:	6823      	ldr	r3, [r4, #0]
 80034b8:	691a      	ldr	r2, [r3, #16]
 80034ba:	07d1      	lsls	r1, r2, #31
 80034bc:	d508      	bpl.n	80034d0 <HAL_TIM_IRQHandler+0xc0>
 80034be:	68da      	ldr	r2, [r3, #12]
 80034c0:	07d2      	lsls	r2, r2, #31
 80034c2:	d505      	bpl.n	80034d0 <HAL_TIM_IRQHandler+0xc0>
 80034c4:	f06f 0201 	mvn.w	r2, #1
 80034c8:	4620      	mov	r0, r4
 80034ca:	611a      	str	r2, [r3, #16]
 80034cc:	f7ff ff9c 	bl	8003408 <HAL_TIM_PeriodElapsedCallback>
 80034d0:	6823      	ldr	r3, [r4, #0]
 80034d2:	691a      	ldr	r2, [r3, #16]
 80034d4:	0610      	lsls	r0, r2, #24
 80034d6:	d508      	bpl.n	80034ea <HAL_TIM_IRQHandler+0xda>
 80034d8:	68da      	ldr	r2, [r3, #12]
 80034da:	0611      	lsls	r1, r2, #24
 80034dc:	d505      	bpl.n	80034ea <HAL_TIM_IRQHandler+0xda>
 80034de:	f06f 0280 	mvn.w	r2, #128	@ 0x80
 80034e2:	4620      	mov	r0, r4
 80034e4:	611a      	str	r2, [r3, #16]
 80034e6:	f000 fc3e 	bl	8003d66 <HAL_TIMEx_BreakCallback>
 80034ea:	6823      	ldr	r3, [r4, #0]
 80034ec:	691a      	ldr	r2, [r3, #16]
 80034ee:	0652      	lsls	r2, r2, #25
 80034f0:	d508      	bpl.n	8003504 <HAL_TIM_IRQHandler+0xf4>
 80034f2:	68da      	ldr	r2, [r3, #12]
 80034f4:	0650      	lsls	r0, r2, #25
 80034f6:	d505      	bpl.n	8003504 <HAL_TIM_IRQHandler+0xf4>
 80034f8:	f06f 0240 	mvn.w	r2, #64	@ 0x40
 80034fc:	4620      	mov	r0, r4
 80034fe:	611a      	str	r2, [r3, #16]
 8003500:	f7ff ff85 	bl	800340e <HAL_TIM_TriggerCallback>
 8003504:	6823      	ldr	r3, [r4, #0]
 8003506:	691a      	ldr	r2, [r3, #16]
 8003508:	0691      	lsls	r1, r2, #26
 800350a:	d522      	bpl.n	8003552 <HAL_TIM_IRQHandler+0x142>
 800350c:	68da      	ldr	r2, [r3, #12]
 800350e:	0692      	lsls	r2, r2, #26
 8003510:	d51f      	bpl.n	8003552 <HAL_TIM_IRQHandler+0x142>
 8003512:	f06f 0220 	mvn.w	r2, #32
 8003516:	4620      	mov	r0, r4
 8003518:	e8bd 4010 	ldmia.w	sp!, {r4, lr}
 800351c:	611a      	str	r2, [r3, #16]
 800351e:	f000 bc21 	b.w	8003d64 <HAL_TIMEx_CommutCallback>
 8003522:	f7ff ff72 	bl	800340a <HAL_TIM_OC_DelayElapsedCallback>
 8003526:	4620      	mov	r0, r4
 8003528:	f7ff ff70 	bl	800340c <HAL_TIM_PWM_PulseFinishedCallback>
 800352c:	e783      	b.n	8003436 <HAL_TIM_IRQHandler+0x26>
 800352e:	f7ff ff6c 	bl	800340a <HAL_TIM_OC_DelayElapsedCallback>
 8003532:	4620      	mov	r0, r4
 8003534:	f7ff ff6a 	bl	800340c <HAL_TIM_PWM_PulseFinishedCallback>
 8003538:	e792      	b.n	8003460 <HAL_TIM_IRQHandler+0x50>
 800353a:	f7ff ff66 	bl	800340a <HAL_TIM_OC_DelayElapsedCallback>
 800353e:	4620      	mov	r0, r4
 8003540:	f7ff ff64 	bl	800340c <HAL_TIM_PWM_PulseFinishedCallback>
 8003544:	e7a0      	b.n	8003488 <HAL_TIM_IRQHandler+0x78>
 8003546:	f7ff ff60 	bl	800340a <HAL_TIM_OC_DelayElapsedCallback>
 800354a:	4620      	mov	r0, r4
 800354c:	f7ff ff5e 	bl	800340c <HAL_TIM_PWM_PulseFinishedCallback>
 8003550:	e7af      	b.n	80034b2 <HAL_TIM_IRQHandler+0xa2>
 8003552:	bd10      	pop	{r4, pc}

08003554 <TIM_Base_SetConfig>:
 8003554:	4a24      	ldr	r2, [pc, #144]	@ (80035e8 <TIM_Base_SetConfig+0x94>)
 8003556:	6803      	ldr	r3, [r0, #0]
 8003558:	4290      	cmp	r0, r2
 800355a:	d012      	beq.n	8003582 <TIM_Base_SetConfig+0x2e>
 800355c:	f502 6200 	add.w	r2, r2, #2048	@ 0x800
 8003560:	4290      	cmp	r0, r2
 8003562:	d00e      	beq.n	8003582 <TIM_Base_SetConfig+0x2e>
 8003564:	f1b0 4f80 	cmp.w	r0, #1073741824	@ 0x40000000
 8003568:	d00b      	beq.n	8003582 <TIM_Base_SetConfig+0x2e>
 800356a:	f5a2 3298 	sub.w	r2, r2, #77824	@ 0x13000
 800356e:	4290      	cmp	r0, r2
 8003570:	d007      	beq.n	8003582 <TIM_Base_SetConfig+0x2e>
 8003572:	f502 6280 	add.w	r2, r2, #1024	@ 0x400
 8003576:	4290      	cmp	r0, r2
 8003578:	d003      	beq.n	8003582 <TIM_Base_SetConfig+0x2e>
 800357a:	f502 6280 	add.w	r2, r2, #1024	@ 0x400
 800357e:	4290      	cmp	r0, r2
 8003580:	d11d      	bne.n	80035be <TIM_Base_SetConfig+0x6a>
 8003582:	684a      	ldr	r2, [r1, #4]
 8003584:	f023 0370 	bic.w	r3, r3, #112	@ 0x70
 8003588:	4313      	orrs	r3, r2
 800358a:	4a17      	ldr	r2, [pc, #92]	@ (80035e8 <TIM_Base_SetConfig+0x94>)
 800358c:	4290      	cmp	r0, r2
 800358e:	d012      	beq.n	80035b6 <TIM_Base_SetConfig+0x62>
 8003590:	f502 6200 	add.w	r2, r2, #2048	@ 0x800
 8003594:	4290      	cmp	r0, r2
 8003596:	d00e      	beq.n	80035b6 <TIM_Base_SetConfig+0x62>
 8003598:	f1b0 4f80 	cmp.w	r0, #1073741824	@ 0x40000000
 800359c:	d00b      	beq.n	80035b6 <TIM_Base_SetConfig+0x62>
 800359e:	f5a2 3298 	sub.w	r2, r2, #77824	@ 0x13000
 80035a2:	4290      	cmp	r0, r2
 80035a4:	d007      	beq.n	80035b6 <TIM_Base_SetConfig+0x62>
 80035a6:	f502 6280 	add.w	r2, r2, #1024	@ 0x400
 80035aa:	4290      	cmp	r0, r2
 80035ac:	d003      	beq.n	80035b6 <TIM_Base_SetConfig+0x62>
 80035ae:	f502 6280 	add.w	r2, r2, #1024	@ 0x400
 80035b2:	4290      	cmp	r0, r2
 80035b4:	d103      	bne.n	80035be <TIM_Base_SetConfig+0x6a>
 80035b6:	68ca      	ldr	r2, [r1, #12]
 80035b8:	f423 7340 	bic.w	r3, r3, #768	@ 0x300
 80035bc:	4313      	orrs	r3, r2
 80035be:	694a      	ldr	r2, [r1, #20]
 80035c0:	f023 0380 	bic.w	r3, r3, #128	@ 0x80
 80035c4:	4313      	orrs	r3, r2
 80035c6:	6003      	str	r3, [r0, #0]
 80035c8:	688b      	ldr	r3, [r1, #8]
 80035ca:	62c3      	str	r3, [r0, #44]	@ 0x2c
 80035cc:	680b      	ldr	r3, [r1, #0]
 80035ce:	6283      	str	r3, [r0, #40]	@ 0x28
 80035d0:	4b05      	ldr	r3, [pc, #20]	@ (80035e8 <TIM_Base_SetConfig+0x94>)
 80035d2:	4298      	cmp	r0, r3
 80035d4:	d003      	beq.n	80035de <TIM_Base_SetConfig+0x8a>
 80035d6:	f503 6300 	add.w	r3, r3, #2048	@ 0x800
 80035da:	4298      	cmp	r0, r3
 80035dc:	d101      	bne.n	80035e2 <TIM_Base_SetConfig+0x8e>
 80035de:	690b      	ldr	r3, [r1, #16]
 80035e0:	6303      	str	r3, [r0, #48]	@ 0x30
 80035e2:	2301      	movs	r3, #1
 80035e4:	6143      	str	r3, [r0, #20]
 80035e6:	4770      	bx	lr
 80035e8:	40012c00 	.word	0x40012c00

080035ec <HAL_TIM_Base_Init>:
 80035ec:	b510      	push	{r4, lr}
 80035ee:	4604      	mov	r4, r0
 80035f0:	b330      	cbz	r0, 8003640 <HAL_TIM_Base_Init+0x54>
 80035f2:	f890 303d 	ldrb.w	r3, [r0, #61]	@ 0x3d
 80035f6:	f003 02ff 	and.w	r2, r3, #255	@ 0xff
 80035fa:	b91b      	cbnz	r3, 8003604 <HAL_TIM_Base_Init+0x18>
 80035fc:	f880 203c 	strb.w	r2, [r0, #60]	@ 0x3c
 8003600:	f7fe fe7e 	bl	8002300 <HAL_TIM_Base_MspInit>
 8003604:	2302      	movs	r3, #2
 8003606:	6820      	ldr	r0, [r4, #0]
 8003608:	f884 303d 	strb.w	r3, [r4, #61]	@ 0x3d
 800360c:	1d21      	adds	r1, r4, #4
 800360e:	f7ff ffa1 	bl	8003554 <TIM_Base_SetConfig>
 8003612:	2301      	movs	r3, #1
 8003614:	2000      	movs	r0, #0
 8003616:	f884 3046 	strb.w	r3, [r4, #70]	@ 0x46
 800361a:	f884 303e 	strb.w	r3, [r4, #62]	@ 0x3e
 800361e:	f884 303f 	strb.w	r3, [r4, #63]	@ 0x3f
 8003622:	f884 3040 	strb.w	r3, [r4, #64]	@ 0x40
 8003626:	f884 3041 	strb.w	r3, [r4, #65]	@ 0x41
 800362a:	f884 3042 	strb.w	r3, [r4, #66]	@ 0x42
 800362e:	f884 3043 	strb.w	r3, [r4, #67]	@ 0x43
 8003632:	f884 3044 	strb.w	r3, [r4, #68]	@ 0x44
 8003636:	f884 3045 	strb.w	r3, [r4, #69]	@ 0x45
 800363a:	f884 303d 	strb.w	r3, [r4, #61]	@ 0x3d
 800363e:	bd10      	pop	{r4, pc}
 8003640:	2001      	movs	r0, #1
 8003642:	e7fc      	b.n	800363e <HAL_TIM_Base_Init+0x52>

08003644 <HAL_TIM_PWM_Init>:
 8003644:	b510      	push	{r4, lr}
 8003646:	4604      	mov	r4, r0
 8003648:	b330      	cbz	r0, 8003698 <HAL_TIM_PWM_Init+0x54>
 800364a:	f890 303d 	ldrb.w	r3, [r0, #61]	@ 0x3d
 800364e:	f003 02ff 	and.w	r2, r3, #255	@ 0xff
 8003652:	b91b      	cbnz	r3, 800365c <HAL_TIM_PWM_Init+0x18>
 8003654:	f880 203c 	strb.w	r2, [r0, #60]	@ 0x3c
 8003658:	f7ff fed4 	bl	8003404 <HAL_TIM_PWM_MspInit>
 800365c:	2302      	movs	r3, #2
 800365e:	6820      	ldr	r0, [r4, #0]
 8003660:	f884 303d 	strb.w	r3, [r4, #61]	@ 0x3d
 8003664:	1d21      	adds	r1, r4, #4
 8003666:	f7ff ff75 	bl	8003554 <TIM_Base_SetConfig>
 800366a:	2301      	movs	r3, #1
 800366c:	2000      	movs	r0, #0
 800366e:	f884 3046 	strb.w	r3, [r4, #70]	@ 0x46
 8003672:	f884 303e 	strb.w	r3, [r4, #62]	@ 0x3e
 8003676:	f884 303f 	strb.w	r3, [r4, #63]	@ 0x3f
 800367a:	f884 3040 	strb.w	r3, [r4, #64]	@ 0x40
 800367e:	f884 3041 	strb.w	r3, [r4, #65]	@ 0x41
 8003682:	f884 3042 	strb.w	r3, [r4, #66]	@ 0x42
 8003686:	f884 3043 	strb.w	r3, [r4, #67]	@ 0x43
 800368a:	f884 3044 	strb.w	r3, [r4, #68]	@ 0x44
 800368e:	f884 3045 	strb.w	r3, [r4, #69]	@ 0x45
 8003692:	f884 303d 	strb.w	r3, [r4, #61]	@ 0x3d
 8003696:	bd10      	pop	{r4, pc}
 8003698:	2001      	movs	r0, #1
 800369a:	e7fc      	b.n	8003696 <HAL_TIM_PWM_Init+0x52>

0800369c <HAL_TIM_IC_Init>:
 800369c:	b510      	push	{r4, lr}
 800369e:	4604      	mov	r4, r0
 80036a0:	b330      	cbz	r0, 80036f0 <HAL_TIM_IC_Init+0x54>
 80036a2:	f890 303d 	ldrb.w	r3, [r0, #61]	@ 0x3d
 80036a6:	f003 02ff 	and.w	r2, r3, #255	@ 0xff
 80036aa:	b91b      	cbnz	r3, 80036b4 <HAL_TIM_IC_Init+0x18>
 80036ac:	f880 203c 	strb.w	r2, [r0, #60]	@ 0x3c
 80036b0:	f7ff fea9 	bl	8003406 <HAL_TIM_IC_MspInit>
 80036b4:	2302      	movs	r3, #2
 80036b6:	6820      	ldr	r0, [r4, #0]
 80036b8:	f884 303d 	strb.w	r3, [r4, #61]	@ 0x3d
 80036bc:	1d21      	adds	r1, r4, #4
 80036be:	f7ff ff49 	bl	8003554 <TIM_Base_SetConfig>
 80036c2:	2301      	movs	r3, #1
 80036c4:	2000      	movs	r0, #0
 80036c6:	f884 3046 	strb.w	r3, [r4, #70]	@ 0x46
 80036ca:	f884 303e 	strb.w	r3, [r4, #62]	@ 0x3e
 80036ce:	f884 303f 	strb.w	r3, [r4, #63]	@ 0x3f
 80036d2:	f884 3040 	strb.w	r3, [r4, #64]	@ 0x40
 80036d6:	f884 3041 	strb.w	r3, [r4, #65]	@ 0x41
 80036da:	f884 3042 	strb.w	r3, [r4, #66]	@ 0x42
 80036de:	f884 3043 	strb.w	r3, [r4, #67]	@ 0x43
 80036e2:	f884 3044 	strb.w	r3, [r4, #68]	@ 0x44
 80036e6:	f884 3045 	strb.w	r3, [r4, #69]	@ 0x45
 80036ea:	f884 303d 	strb.w	r3, [r4, #61]	@ 0x3d
 80036ee:	bd10      	pop	{r4, pc}
 80036f0:	2001      	movs	r0, #1
 80036f2:	e7fc      	b.n	80036ee <HAL_TIM_IC_Init+0x52>

080036f4 <TIM_OC2_SetConfig>:
 80036f4:	6a03      	ldr	r3, [r0, #32]
 80036f6:	6a02      	ldr	r2, [r0, #32]
 80036f8:	b570      	push	{r4, r5, r6, lr}
 80036fa:	f022 0210 	bic.w	r2, r2, #16
 80036fe:	6202      	str	r2, [r0, #32]
 8003700:	6844      	ldr	r4, [r0, #4]
 8003702:	6982      	ldr	r2, [r0, #24]
 8003704:	680d      	ldr	r5, [r1, #0]
 8003706:	f422 42e6 	bic.w	r2, r2, #29440	@ 0x7300
 800370a:	ea42 2205 	orr.w	r2, r2, r5, lsl #8
 800370e:	688d      	ldr	r5, [r1, #8]
 8003710:	f023 0320 	bic.w	r3, r3, #32
 8003714:	ea43 1305 	orr.w	r3, r3, r5, lsl #4
 8003718:	4d10      	ldr	r5, [pc, #64]	@ (800375c <TIM_OC2_SetConfig+0x68>)
 800371a:	42a8      	cmp	r0, r5
 800371c:	d003      	beq.n	8003726 <TIM_OC2_SetConfig+0x32>
 800371e:	f505 6500 	add.w	r5, r5, #2048	@ 0x800
 8003722:	42a8      	cmp	r0, r5
 8003724:	d114      	bne.n	8003750 <TIM_OC2_SetConfig+0x5c>
 8003726:	68cd      	ldr	r5, [r1, #12]
 8003728:	f023 0380 	bic.w	r3, r3, #128	@ 0x80
 800372c:	ea43 1305 	orr.w	r3, r3, r5, lsl #4
 8003730:	4d0a      	ldr	r5, [pc, #40]	@ (800375c <TIM_OC2_SetConfig+0x68>)
 8003732:	f023 0340 	bic.w	r3, r3, #64	@ 0x40
 8003736:	42a8      	cmp	r0, r5
 8003738:	d003      	beq.n	8003742 <TIM_OC2_SetConfig+0x4e>
 800373a:	f505 6500 	add.w	r5, r5, #2048	@ 0x800
 800373e:	42a8      	cmp	r0, r5
 8003740:	d106      	bne.n	8003750 <TIM_OC2_SetConfig+0x5c>
 8003742:	e9d1 5605 	ldrd	r5, r6, [r1, #20]
 8003746:	f424 6440 	bic.w	r4, r4, #3072	@ 0xc00
 800374a:	4335      	orrs	r5, r6
 800374c:	ea44 0485 	orr.w	r4, r4, r5, lsl #2
 8003750:	6044      	str	r4, [r0, #4]
 8003752:	6182      	str	r2, [r0, #24]
 8003754:	684a      	ldr	r2, [r1, #4]
 8003756:	6382      	str	r2, [r0, #56]	@ 0x38
 8003758:	6203      	str	r3, [r0, #32]
 800375a:	bd70      	pop	{r4, r5, r6, pc}
 800375c:	40012c00 	.word	0x40012c00

08003760 <HAL_TIM_PWM_ConfigChannel>:
 8003760:	b538      	push	{r3, r4, r5, lr}
 8003762:	f890 303c 	ldrb.w	r3, [r0, #60]	@ 0x3c
 8003766:	4604      	mov	r4, r0
 8003768:	2b01      	cmp	r3, #1
 800376a:	d04f      	beq.n	800380c <HAL_TIM_PWM_ConfigChannel+0xac>
 800376c:	2001      	movs	r0, #1
 800376e:	2a08      	cmp	r2, #8
 8003770:	f884 003c 	strb.w	r0, [r4, #60]	@ 0x3c
 8003774:	d03a      	beq.n	80037ec <HAL_TIM_PWM_ConfigChannel+0x8c>
 8003776:	d806      	bhi.n	8003786 <HAL_TIM_PWM_ConfigChannel+0x26>
 8003778:	b1ba      	cbz	r2, 80037aa <HAL_TIM_PWM_ConfigChannel+0x4a>
 800377a:	2a04      	cmp	r2, #4
 800377c:	d026      	beq.n	80037cc <HAL_TIM_PWM_ConfigChannel+0x6c>
 800377e:	2300      	movs	r3, #0
 8003780:	f884 303c 	strb.w	r3, [r4, #60]	@ 0x3c
 8003784:	bd38      	pop	{r3, r4, r5, pc}
 8003786:	2a0c      	cmp	r2, #12
 8003788:	d1f9      	bne.n	800377e <HAL_TIM_PWM_ConfigChannel+0x1e>
 800378a:	6820      	ldr	r0, [r4, #0]
 800378c:	f7ff fe14 	bl	80033b8 <TIM_OC4_SetConfig>
 8003790:	69c3      	ldr	r3, [r0, #28]
 8003792:	690a      	ldr	r2, [r1, #16]
 8003794:	f443 6300 	orr.w	r3, r3, #2048	@ 0x800
 8003798:	61c3      	str	r3, [r0, #28]
 800379a:	69c3      	ldr	r3, [r0, #28]
 800379c:	f423 6380 	bic.w	r3, r3, #1024	@ 0x400
 80037a0:	61c3      	str	r3, [r0, #28]
 80037a2:	69c3      	ldr	r3, [r0, #28]
 80037a4:	ea43 2302 	orr.w	r3, r3, r2, lsl #8
 80037a8:	e02e      	b.n	8003808 <HAL_TIM_PWM_ConfigChannel+0xa8>
 80037aa:	6820      	ldr	r0, [r4, #0]
 80037ac:	f7ff fd9c 	bl	80032e8 <TIM_OC1_SetConfig>
 80037b0:	6983      	ldr	r3, [r0, #24]
 80037b2:	690a      	ldr	r2, [r1, #16]
 80037b4:	f043 0308 	orr.w	r3, r3, #8
 80037b8:	6183      	str	r3, [r0, #24]
 80037ba:	6983      	ldr	r3, [r0, #24]
 80037bc:	f023 0304 	bic.w	r3, r3, #4
 80037c0:	6183      	str	r3, [r0, #24]
 80037c2:	6983      	ldr	r3, [r0, #24]
 80037c4:	4313      	orrs	r3, r2
 80037c6:	6183      	str	r3, [r0, #24]
 80037c8:	2000      	movs	r0, #0
 80037ca:	e7d8      	b.n	800377e <HAL_TIM_PWM_ConfigChannel+0x1e>
 80037cc:	6820      	ldr	r0, [r4, #0]
 80037ce:	f7ff ff91 	bl	80036f4 <TIM_OC2_SetConfig>
 80037d2:	6983      	ldr	r3, [r0, #24]
 80037d4:	690a      	ldr	r2, [r1, #16]
 80037d6:	f443 6300 	orr.w	r3, r3, #2048	@ 0x800
 80037da:	6183      	str	r3, [r0, #24]
 80037dc:	6983      	ldr	r3, [r0, #24]
 80037de:	f423 6380 	bic.w	r3, r3, #1024	@ 0x400
 80037e2:	6183      	str	r3, [r0, #24]
 80037e4:	6983      	ldr	r3, [r0, #24]
 80037e6:	ea43 2302 	orr.w	r3, r3, r2, lsl #8
 80037ea:	e7ec      	b.n	80037c6 <HAL_TIM_PWM_ConfigChannel+0x66>
 80037ec:	6820      	ldr	r0, [r4, #0]
 80037ee:	f7ff fdad 	bl	800334c <TIM_OC3_SetConfig>
 80037f2:	69c3      	ldr	r3, [r0, #28]
 80037f4:	690a      	ldr	r2, [r1, #16]
 80037f6:	f043 0308 	orr.w	r3, r3, #8
 80037fa:	61c3      	str	r3, [r0, #28]
 80037fc:	69c3      	ldr	r3, [r0, #28]
 80037fe:	f023 0304 	bic.w	r3, r3, #4
 8003802:	61c3      	str	r3, [r0, #28]
 8003804:	69c3      	ldr	r3, [r0, #28]
 8003806:	4313      	orrs	r3, r2
 8003808:	61c3      	str	r3, [r0, #28]
 800380a:	e7dd      	b.n	80037c8 <HAL_TIM_PWM_ConfigChannel+0x68>
 800380c:	2002      	movs	r0, #2
 800380e:	e7b9      	b.n	8003784 <HAL_TIM_PWM_ConfigChannel+0x24>

08003810 <TIM_TI1_SetConfig>:
 8003810:	b570      	push	{r4, r5, r6, lr}
 8003812:	6a05      	ldr	r5, [r0, #32]
 8003814:	6a04      	ldr	r4, [r0, #32]
 8003816:	4e16      	ldr	r6, [pc, #88]	@ (8003870 <TIM_TI1_SetConfig+0x60>)
 8003818:	f024 0401 	bic.w	r4, r4, #1
 800381c:	6204      	str	r4, [r0, #32]
 800381e:	42b0      	cmp	r0, r6
 8003820:	6984      	ldr	r4, [r0, #24]
 8003822:	d021      	beq.n	8003868 <TIM_TI1_SetConfig+0x58>
 8003824:	f506 6600 	add.w	r6, r6, #2048	@ 0x800
 8003828:	42b0      	cmp	r0, r6
 800382a:	d01d      	beq.n	8003868 <TIM_TI1_SetConfig+0x58>
 800382c:	f1b0 4f80 	cmp.w	r0, #1073741824	@ 0x40000000
 8003830:	d01a      	beq.n	8003868 <TIM_TI1_SetConfig+0x58>
 8003832:	f5a6 3698 	sub.w	r6, r6, #77824	@ 0x13000
 8003836:	42b0      	cmp	r0, r6
 8003838:	d016      	beq.n	8003868 <TIM_TI1_SetConfig+0x58>
 800383a:	f506 6680 	add.w	r6, r6, #1024	@ 0x400
 800383e:	42b0      	cmp	r0, r6
 8003840:	d012      	beq.n	8003868 <TIM_TI1_SetConfig+0x58>
 8003842:	f506 6680 	add.w	r6, r6, #1024	@ 0x400
 8003846:	42b0      	cmp	r0, r6
 8003848:	d00e      	beq.n	8003868 <TIM_TI1_SetConfig+0x58>
 800384a:	f044 0201 	orr.w	r2, r4, #1
 800384e:	011b      	lsls	r3, r3, #4
 8003850:	f022 02f0 	bic.w	r2, r2, #240	@ 0xf0
 8003854:	b2db      	uxtb	r3, r3
 8003856:	4313      	orrs	r3, r2
 8003858:	f001 010a 	and.w	r1, r1, #10
 800385c:	f025 020a 	bic.w	r2, r5, #10
 8003860:	4311      	orrs	r1, r2
 8003862:	6183      	str	r3, [r0, #24]
 8003864:	6201      	str	r1, [r0, #32]
 8003866:	bd70      	pop	{r4, r5, r6, pc}
 8003868:	f024 0403 	bic.w	r4, r4, #3
 800386c:	4322      	orrs	r2, r4
 800386e:	e7ee      	b.n	800384e <TIM_TI1_SetConfig+0x3e>
 8003870:	40012c00 	.word	0x40012c00

08003874 <HAL_TIM_IC_ConfigChannel>:
 8003874:	b5f8      	push	{r3, r4, r5, r6, r7, lr}
 8003876:	f890 303c 	ldrb.w	r3, [r0, #60]	@ 0x3c
 800387a:	4605      	mov	r5, r0
 800387c:	2b01      	cmp	r3, #1
 800387e:	460c      	mov	r4, r1
 8003880:	f000 8088 	beq.w	8003994 <HAL_TIM_IC_ConfigChannel+0x120>
 8003884:	2001      	movs	r0, #1
 8003886:	f885 003c 	strb.w	r0, [r5, #60]	@ 0x3c
 800388a:	b98a      	cbnz	r2, 80038b0 <HAL_TIM_IC_ConfigChannel+0x3c>
 800388c:	6828      	ldr	r0, [r5, #0]
 800388e:	68cb      	ldr	r3, [r1, #12]
 8003890:	c906      	ldmia	r1, {r1, r2}
 8003892:	f7ff ffbd 	bl	8003810 <TIM_TI1_SetConfig>
 8003896:	6983      	ldr	r3, [r0, #24]
 8003898:	68a2      	ldr	r2, [r4, #8]
 800389a:	f023 030c 	bic.w	r3, r3, #12
 800389e:	6183      	str	r3, [r0, #24]
 80038a0:	6983      	ldr	r3, [r0, #24]
 80038a2:	4313      	orrs	r3, r2
 80038a4:	6183      	str	r3, [r0, #24]
 80038a6:	2000      	movs	r0, #0
 80038a8:	2300      	movs	r3, #0
 80038aa:	f885 303c 	strb.w	r3, [r5, #60]	@ 0x3c
 80038ae:	bdf8      	pop	{r3, r4, r5, r6, r7, pc}
 80038b0:	2a04      	cmp	r2, #4
 80038b2:	d124      	bne.n	80038fe <HAL_TIM_IC_ConfigChannel+0x8a>
 80038b4:	e9d1 2700 	ldrd	r2, r7, [r1]
 80038b8:	682b      	ldr	r3, [r5, #0]
 80038ba:	68c9      	ldr	r1, [r1, #12]
 80038bc:	6a1e      	ldr	r6, [r3, #32]
 80038be:	6a18      	ldr	r0, [r3, #32]
 80038c0:	0309      	lsls	r1, r1, #12
 80038c2:	f020 0010 	bic.w	r0, r0, #16
 80038c6:	6218      	str	r0, [r3, #32]
 80038c8:	6998      	ldr	r0, [r3, #24]
 80038ca:	b289      	uxth	r1, r1
 80038cc:	f420 7040 	bic.w	r0, r0, #768	@ 0x300
 80038d0:	ea40 2007 	orr.w	r0, r0, r7, lsl #8
 80038d4:	f420 4070 	bic.w	r0, r0, #61440	@ 0xf000
 80038d8:	0112      	lsls	r2, r2, #4
 80038da:	4301      	orrs	r1, r0
 80038dc:	f002 02a0 	and.w	r2, r2, #160	@ 0xa0
 80038e0:	f026 00a0 	bic.w	r0, r6, #160	@ 0xa0
 80038e4:	4302      	orrs	r2, r0
 80038e6:	6199      	str	r1, [r3, #24]
 80038e8:	621a      	str	r2, [r3, #32]
 80038ea:	699a      	ldr	r2, [r3, #24]
 80038ec:	68a1      	ldr	r1, [r4, #8]
 80038ee:	f422 6240 	bic.w	r2, r2, #3072	@ 0xc00
 80038f2:	619a      	str	r2, [r3, #24]
 80038f4:	699a      	ldr	r2, [r3, #24]
 80038f6:	ea42 2201 	orr.w	r2, r2, r1, lsl #8
 80038fa:	619a      	str	r2, [r3, #24]
 80038fc:	e7d3      	b.n	80038a6 <HAL_TIM_IC_ConfigChannel+0x32>
 80038fe:	2a08      	cmp	r2, #8
 8003900:	d122      	bne.n	8003948 <HAL_TIM_IC_ConfigChannel+0xd4>
 8003902:	e9d1 2000 	ldrd	r2, r0, [r1]
 8003906:	682b      	ldr	r3, [r5, #0]
 8003908:	68c9      	ldr	r1, [r1, #12]
 800390a:	6a1e      	ldr	r6, [r3, #32]
 800390c:	6a1f      	ldr	r7, [r3, #32]
 800390e:	0109      	lsls	r1, r1, #4
 8003910:	f427 7780 	bic.w	r7, r7, #256	@ 0x100
 8003914:	621f      	str	r7, [r3, #32]
 8003916:	69df      	ldr	r7, [r3, #28]
 8003918:	b2c9      	uxtb	r1, r1
 800391a:	f027 0703 	bic.w	r7, r7, #3
 800391e:	4338      	orrs	r0, r7
 8003920:	f020 00f0 	bic.w	r0, r0, #240	@ 0xf0
 8003924:	0212      	lsls	r2, r2, #8
 8003926:	4301      	orrs	r1, r0
 8003928:	f402 7200 	and.w	r2, r2, #512	@ 0x200
 800392c:	f426 7000 	bic.w	r0, r6, #512	@ 0x200
 8003930:	4302      	orrs	r2, r0
 8003932:	61d9      	str	r1, [r3, #28]
 8003934:	621a      	str	r2, [r3, #32]
 8003936:	69da      	ldr	r2, [r3, #28]
 8003938:	68a1      	ldr	r1, [r4, #8]
 800393a:	f022 020c 	bic.w	r2, r2, #12
 800393e:	61da      	str	r2, [r3, #28]
 8003940:	69da      	ldr	r2, [r3, #28]
 8003942:	430a      	orrs	r2, r1
 8003944:	61da      	str	r2, [r3, #28]
 8003946:	e7ae      	b.n	80038a6 <HAL_TIM_IC_ConfigChannel+0x32>
 8003948:	2a0c      	cmp	r2, #12
 800394a:	d1ad      	bne.n	80038a8 <HAL_TIM_IC_ConfigChannel+0x34>
 800394c:	e9d1 2700 	ldrd	r2, r7, [r1]
 8003950:	682b      	ldr	r3, [r5, #0]
 8003952:	68c9      	ldr	r1, [r1, #12]
 8003954:	6a1e      	ldr	r6, [r3, #32]
 8003956:	6a18      	ldr	r0, [r3, #32]
 8003958:	0309      	lsls	r1, r1, #12
 800395a:	f420 5080 	bic.w	r0, r0, #4096	@ 0x1000
 800395e:	6218      	str	r0, [r3, #32]
 8003960:	69d8      	ldr	r0, [r3, #28]
 8003962:	b289      	uxth	r1, r1
 8003964:	f420 7040 	bic.w	r0, r0, #768	@ 0x300
 8003968:	ea40 2007 	orr.w	r0, r0, r7, lsl #8
 800396c:	f420 4070 	bic.w	r0, r0, #61440	@ 0xf000
 8003970:	0312      	lsls	r2, r2, #12
 8003972:	4301      	orrs	r1, r0
 8003974:	f402 5200 	and.w	r2, r2, #8192	@ 0x2000
 8003978:	f426 5000 	bic.w	r0, r6, #8192	@ 0x2000
 800397c:	4302      	orrs	r2, r0
 800397e:	61d9      	str	r1, [r3, #28]
 8003980:	621a      	str	r2, [r3, #32]
 8003982:	69da      	ldr	r2, [r3, #28]
 8003984:	68a1      	ldr	r1, [r4, #8]
 8003986:	f422 6240 	bic.w	r2, r2, #3072	@ 0xc00
 800398a:	61da      	str	r2, [r3, #28]
 800398c:	69da      	ldr	r2, [r3, #28]
 800398e:	ea42 2201 	orr.w	r2, r2, r1, lsl #8
 8003992:	e7d7      	b.n	8003944 <HAL_TIM_IC_ConfigChannel+0xd0>
 8003994:	2002      	movs	r0, #2
 8003996:	e78a      	b.n	80038ae <HAL_TIM_IC_ConfigChannel+0x3a>

08003998 <TIM_ETR_SetConfig>:
 8003998:	b510      	push	{r4, lr}
 800399a:	6884      	ldr	r4, [r0, #8]
 800399c:	430a      	orrs	r2, r1
 800399e:	f424 447f 	bic.w	r4, r4, #65280	@ 0xff00
 80039a2:	ea42 2203 	orr.w	r2, r2, r3, lsl #8
 80039a6:	4322      	orrs	r2, r4
 80039a8:	6082      	str	r2, [r0, #8]
 80039aa:	bd10      	pop	{r4, pc}

080039ac <HAL_TIM_ConfigClockSource>:
 80039ac:	b538      	push	{r3, r4, r5, lr}
 80039ae:	f890 303c 	ldrb.w	r3, [r0, #60]	@ 0x3c
 80039b2:	4604      	mov	r4, r0
 80039b4:	2b01      	cmp	r3, #1
 80039b6:	f04f 0002 	mov.w	r0, #2
 80039ba:	f000 808e 	beq.w	8003ada <HAL_TIM_ConfigClockSource+0x12e>
 80039be:	2201      	movs	r2, #1
 80039c0:	f884 003d 	strb.w	r0, [r4, #61]	@ 0x3d
 80039c4:	6820      	ldr	r0, [r4, #0]
 80039c6:	f884 203c 	strb.w	r2, [r4, #60]	@ 0x3c
 80039ca:	6883      	ldr	r3, [r0, #8]
 80039cc:	f423 437f 	bic.w	r3, r3, #65280	@ 0xff00
 80039d0:	f023 0377 	bic.w	r3, r3, #119	@ 0x77
 80039d4:	6083      	str	r3, [r0, #8]
 80039d6:	680b      	ldr	r3, [r1, #0]
 80039d8:	2b60      	cmp	r3, #96	@ 0x60
 80039da:	d04f      	beq.n	8003a7c <HAL_TIM_ConfigClockSource+0xd0>
 80039dc:	d832      	bhi.n	8003a44 <HAL_TIM_ConfigClockSource+0x98>
 80039de:	2b40      	cmp	r3, #64	@ 0x40
 80039e0:	d064      	beq.n	8003aac <HAL_TIM_ConfigClockSource+0x100>
 80039e2:	d816      	bhi.n	8003a12 <HAL_TIM_ConfigClockSource+0x66>
 80039e4:	2b20      	cmp	r3, #32
 80039e6:	d00d      	beq.n	8003a04 <HAL_TIM_ConfigClockSource+0x58>
 80039e8:	d80a      	bhi.n	8003a00 <HAL_TIM_ConfigClockSource+0x54>
 80039ea:	f033 0110 	bics.w	r1, r3, #16
 80039ee:	d009      	beq.n	8003a04 <HAL_TIM_ConfigClockSource+0x58>
 80039f0:	2301      	movs	r3, #1
 80039f2:	f884 303d 	strb.w	r3, [r4, #61]	@ 0x3d
 80039f6:	2300      	movs	r3, #0
 80039f8:	f884 303c 	strb.w	r3, [r4, #60]	@ 0x3c
 80039fc:	4610      	mov	r0, r2
 80039fe:	bd38      	pop	{r3, r4, r5, pc}
 8003a00:	2b30      	cmp	r3, #48	@ 0x30
 8003a02:	d1f5      	bne.n	80039f0 <HAL_TIM_ConfigClockSource+0x44>
 8003a04:	6882      	ldr	r2, [r0, #8]
 8003a06:	f022 0270 	bic.w	r2, r2, #112	@ 0x70
 8003a0a:	4313      	orrs	r3, r2
 8003a0c:	f043 0307 	orr.w	r3, r3, #7
 8003a10:	e028      	b.n	8003a64 <HAL_TIM_ConfigClockSource+0xb8>
 8003a12:	2b50      	cmp	r3, #80	@ 0x50
 8003a14:	d1ec      	bne.n	80039f0 <HAL_TIM_ConfigClockSource+0x44>
 8003a16:	684a      	ldr	r2, [r1, #4]
 8003a18:	68cd      	ldr	r5, [r1, #12]
 8003a1a:	6a01      	ldr	r1, [r0, #32]
 8003a1c:	6a03      	ldr	r3, [r0, #32]
 8003a1e:	f021 010a 	bic.w	r1, r1, #10
 8003a22:	f023 0301 	bic.w	r3, r3, #1
 8003a26:	6203      	str	r3, [r0, #32]
 8003a28:	6983      	ldr	r3, [r0, #24]
 8003a2a:	430a      	orrs	r2, r1
 8003a2c:	f023 03f0 	bic.w	r3, r3, #240	@ 0xf0
 8003a30:	ea43 1305 	orr.w	r3, r3, r5, lsl #4
 8003a34:	6183      	str	r3, [r0, #24]
 8003a36:	6202      	str	r2, [r0, #32]
 8003a38:	6883      	ldr	r3, [r0, #8]
 8003a3a:	f023 0370 	bic.w	r3, r3, #112	@ 0x70
 8003a3e:	f043 0357 	orr.w	r3, r3, #87	@ 0x57
 8003a42:	e00f      	b.n	8003a64 <HAL_TIM_ConfigClockSource+0xb8>
 8003a44:	f5b3 5f80 	cmp.w	r3, #4096	@ 0x1000
 8003a48:	d00d      	beq.n	8003a66 <HAL_TIM_ConfigClockSource+0xba>
 8003a4a:	f5b3 5f00 	cmp.w	r3, #8192	@ 0x2000
 8003a4e:	d00c      	beq.n	8003a6a <HAL_TIM_ConfigClockSource+0xbe>
 8003a50:	2b70      	cmp	r3, #112	@ 0x70
 8003a52:	d1cd      	bne.n	80039f0 <HAL_TIM_ConfigClockSource+0x44>
 8003a54:	68cb      	ldr	r3, [r1, #12]
 8003a56:	e9d1 2101 	ldrd	r2, r1, [r1, #4]
 8003a5a:	f7ff ff9d 	bl	8003998 <TIM_ETR_SetConfig>
 8003a5e:	6883      	ldr	r3, [r0, #8]
 8003a60:	f043 0377 	orr.w	r3, r3, #119	@ 0x77
 8003a64:	6083      	str	r3, [r0, #8]
 8003a66:	2200      	movs	r2, #0
 8003a68:	e7c2      	b.n	80039f0 <HAL_TIM_ConfigClockSource+0x44>
 8003a6a:	68cb      	ldr	r3, [r1, #12]
 8003a6c:	e9d1 2101 	ldrd	r2, r1, [r1, #4]
 8003a70:	f7ff ff92 	bl	8003998 <TIM_ETR_SetConfig>
 8003a74:	6883      	ldr	r3, [r0, #8]
 8003a76:	f443 4380 	orr.w	r3, r3, #16384	@ 0x4000
 8003a7a:	e7f3      	b.n	8003a64 <HAL_TIM_ConfigClockSource+0xb8>
 8003a7c:	6a03      	ldr	r3, [r0, #32]
 8003a7e:	6a02      	ldr	r2, [r0, #32]
 8003a80:	684d      	ldr	r5, [r1, #4]
 8003a82:	f022 0210 	bic.w	r2, r2, #16
 8003a86:	68c9      	ldr	r1, [r1, #12]
 8003a88:	6202      	str	r2, [r0, #32]
 8003a8a:	6982      	ldr	r2, [r0, #24]
 8003a8c:	f023 03a0 	bic.w	r3, r3, #160	@ 0xa0
 8003a90:	f422 4270 	bic.w	r2, r2, #61440	@ 0xf000
 8003a94:	ea43 1305 	orr.w	r3, r3, r5, lsl #4
 8003a98:	ea42 3201 	orr.w	r2, r2, r1, lsl #12
 8003a9c:	6182      	str	r2, [r0, #24]
 8003a9e:	6203      	str	r3, [r0, #32]
 8003aa0:	6883      	ldr	r3, [r0, #8]
 8003aa2:	f023 0370 	bic.w	r3, r3, #112	@ 0x70
 8003aa6:	f043 0367 	orr.w	r3, r3, #103	@ 0x67
 8003aaa:	e7db      	b.n	8003a64 <HAL_TIM_ConfigClockSource+0xb8>
 8003aac:	684a      	ldr	r2, [r1, #4]
 8003aae:	68cd      	ldr	r5, [r1, #12]
 8003ab0:	6a01      	ldr	r1, [r0, #32]
 8003ab2:	6a03      	ldr	r3, [r0, #32]
 8003ab4:	f021 010a 	bic.w	r1, r1, #10
 8003ab8:	f023 0301 	bic.w	r3, r3, #1
 8003abc:	6203      	str	r3, [r0, #32]
 8003abe:	6983      	ldr	r3, [r0, #24]
 8003ac0:	430a      	orrs	r2, r1
 8003ac2:	f023 03f0 	bic.w	r3, r3, #240	@ 0xf0
 8003ac6:	ea43 1305 	orr.w	r3, r3, r5, lsl #4
 8003aca:	6183      	str	r3, [r0, #24]
 8003acc:	6202      	str	r2, [r0, #32]
 8003ace:	6883      	ldr	r3, [r0, #8]
 8003ad0:	f023 0370 	bic.w	r3, r3, #112	@ 0x70
 8003ad4:	f043 0347 	orr.w	r3, r3, #71	@ 0x47
 8003ad8:	e7c4      	b.n	8003a64 <HAL_TIM_ConfigClockSource+0xb8>
 8003ada:	4602      	mov	r2, r0
 8003adc:	e78e      	b.n	80039fc <HAL_TIM_ConfigClockSource+0x50>

08003ade <TIM_CCxChannelCmd>:
 8003ade:	b510      	push	{r4, lr}
 8003ae0:	2401      	movs	r4, #1
 8003ae2:	6a03      	ldr	r3, [r0, #32]
 8003ae4:	f001 011f 	and.w	r1, r1, #31
 8003ae8:	408c      	lsls	r4, r1
 8003aea:	ea23 0304 	bic.w	r3, r3, r4
 8003aee:	6203      	str	r3, [r0, #32]
 8003af0:	6a03      	ldr	r3, [r0, #32]
 8003af2:	408a      	lsls	r2, r1
 8003af4:	431a      	orrs	r2, r3
 8003af6:	6202      	str	r2, [r0, #32]
 8003af8:	bd10      	pop	{r4, pc}
	...

08003afc <HAL_TIM_OC_Start>:
 8003afc:	b508      	push	{r3, lr}
 8003afe:	b939      	cbnz	r1, 8003b10 <HAL_TIM_OC_Start+0x14>
 8003b00:	f890 303e 	ldrb.w	r3, [r0, #62]	@ 0x3e
 8003b04:	3b01      	subs	r3, #1
 8003b06:	bf18      	it	ne
 8003b08:	2301      	movne	r3, #1
 8003b0a:	b173      	cbz	r3, 8003b2a <HAL_TIM_OC_Start+0x2e>
 8003b0c:	2001      	movs	r0, #1
 8003b0e:	e023      	b.n	8003b58 <HAL_TIM_OC_Start+0x5c>
 8003b10:	2904      	cmp	r1, #4
 8003b12:	d102      	bne.n	8003b1a <HAL_TIM_OC_Start+0x1e>
 8003b14:	f890 303f 	ldrb.w	r3, [r0, #63]	@ 0x3f
 8003b18:	e7f4      	b.n	8003b04 <HAL_TIM_OC_Start+0x8>
 8003b1a:	2908      	cmp	r1, #8
 8003b1c:	d102      	bne.n	8003b24 <HAL_TIM_OC_Start+0x28>
 8003b1e:	f890 3040 	ldrb.w	r3, [r0, #64]	@ 0x40
 8003b22:	e7ef      	b.n	8003b04 <HAL_TIM_OC_Start+0x8>
 8003b24:	f890 3041 	ldrb.w	r3, [r0, #65]	@ 0x41
 8003b28:	e7ec      	b.n	8003b04 <HAL_TIM_OC_Start+0x8>
 8003b2a:	2302      	movs	r3, #2
 8003b2c:	b9a9      	cbnz	r1, 8003b5a <HAL_TIM_OC_Start+0x5e>
 8003b2e:	f880 303e 	strb.w	r3, [r0, #62]	@ 0x3e
 8003b32:	2201      	movs	r2, #1
 8003b34:	6800      	ldr	r0, [r0, #0]
 8003b36:	f7ff ffd2 	bl	8003ade <TIM_CCxChannelCmd>
 8003b3a:	4a1b      	ldr	r2, [pc, #108]	@ (8003ba8 <HAL_TIM_OC_Start+0xac>)
 8003b3c:	4290      	cmp	r0, r2
 8003b3e:	d018      	beq.n	8003b72 <HAL_TIM_OC_Start+0x76>
 8003b40:	4b1a      	ldr	r3, [pc, #104]	@ (8003bac <HAL_TIM_OC_Start+0xb0>)
 8003b42:	4298      	cmp	r0, r3
 8003b44:	d015      	beq.n	8003b72 <HAL_TIM_OC_Start+0x76>
 8003b46:	f1b0 4f80 	cmp.w	r0, #1073741824	@ 0x40000000
 8003b4a:	d11c      	bne.n	8003b86 <HAL_TIM_OC_Start+0x8a>
 8003b4c:	6883      	ldr	r3, [r0, #8]
 8003b4e:	f003 0307 	and.w	r3, r3, #7
 8003b52:	2b06      	cmp	r3, #6
 8003b54:	d122      	bne.n	8003b9c <HAL_TIM_OC_Start+0xa0>
 8003b56:	2000      	movs	r0, #0
 8003b58:	bd08      	pop	{r3, pc}
 8003b5a:	2904      	cmp	r1, #4
 8003b5c:	d102      	bne.n	8003b64 <HAL_TIM_OC_Start+0x68>
 8003b5e:	f880 303f 	strb.w	r3, [r0, #63]	@ 0x3f
 8003b62:	e7e6      	b.n	8003b32 <HAL_TIM_OC_Start+0x36>
 8003b64:	2908      	cmp	r1, #8
 8003b66:	bf0c      	ite	eq
 8003b68:	f880 3040 	strbeq.w	r3, [r0, #64]	@ 0x40
 8003b6c:	f880 3041 	strbne.w	r3, [r0, #65]	@ 0x41
 8003b70:	e7df      	b.n	8003b32 <HAL_TIM_OC_Start+0x36>
 8003b72:	6c43      	ldr	r3, [r0, #68]	@ 0x44
 8003b74:	4290      	cmp	r0, r2
 8003b76:	f443 4300 	orr.w	r3, r3, #32768	@ 0x8000
 8003b7a:	6443      	str	r3, [r0, #68]	@ 0x44
 8003b7c:	d0e6      	beq.n	8003b4c <HAL_TIM_OC_Start+0x50>
 8003b7e:	4b0b      	ldr	r3, [pc, #44]	@ (8003bac <HAL_TIM_OC_Start+0xb0>)
 8003b80:	4298      	cmp	r0, r3
 8003b82:	d0e3      	beq.n	8003b4c <HAL_TIM_OC_Start+0x50>
 8003b84:	e7df      	b.n	8003b46 <HAL_TIM_OC_Start+0x4a>
 8003b86:	4b0a      	ldr	r3, [pc, #40]	@ (8003bb0 <HAL_TIM_OC_Start+0xb4>)
 8003b88:	4298      	cmp	r0, r3
 8003b8a:	d0df      	beq.n	8003b4c <HAL_TIM_OC_Start+0x50>
 8003b8c:	f503 6380 	add.w	r3, r3, #1024	@ 0x400
 8003b90:	4298      	cmp	r0, r3
 8003b92:	d0db      	beq.n	8003b4c <HAL_TIM_OC_Start+0x50>
 8003b94:	f503 6380 	add.w	r3, r3, #1024	@ 0x400
 8003b98:	4298      	cmp	r0, r3
 8003b9a:	d0d7      	beq.n	8003b4c <HAL_TIM_OC_Start+0x50>
 8003b9c:	6803      	ldr	r3, [r0, #0]
 8003b9e:	f043 0301 	orr.w	r3, r3, #1
 8003ba2:	6003      	str	r3, [r0, #0]
 8003ba4:	e7d7      	b.n	8003b56 <HAL_TIM_OC_Start+0x5a>
 8003ba6:	bf00      	nop
 8003ba8:	40012c00 	.word	0x40012c00
 8003bac:	40013400 	.word	0x40013400
 8003bb0:	40000400 	.word	0x40000400

08003bb4 <HAL_TIM_PWM_Start>:
 8003bb4:	f7ff bfa2 	b.w	8003afc <HAL_TIM_OC_Start>

08003bb8 <HAL_TIM_IC_Start_IT>:
 8003bb8:	b508      	push	{r3, lr}
 8003bba:	2900      	cmp	r1, #0
 8003bbc:	d136      	bne.n	8003c2c <HAL_TIM_IC_Start_IT+0x74>
 8003bbe:	f890 203e 	ldrb.w	r2, [r0, #62]	@ 0x3e
 8003bc2:	f890 3042 	ldrb.w	r3, [r0, #66]	@ 0x42
 8003bc6:	b2d2      	uxtb	r2, r2
 8003bc8:	2a01      	cmp	r2, #1
 8003bca:	b2db      	uxtb	r3, r3
 8003bcc:	d16a      	bne.n	8003ca4 <HAL_TIM_IC_Start_IT+0xec>
 8003bce:	2b01      	cmp	r3, #1
 8003bd0:	d168      	bne.n	8003ca4 <HAL_TIM_IC_Start_IT+0xec>
 8003bd2:	2302      	movs	r3, #2
 8003bd4:	2900      	cmp	r1, #0
 8003bd6:	d13f      	bne.n	8003c58 <HAL_TIM_IC_Start_IT+0xa0>
 8003bd8:	6802      	ldr	r2, [r0, #0]
 8003bda:	f880 303e 	strb.w	r3, [r0, #62]	@ 0x3e
 8003bde:	f880 3042 	strb.w	r3, [r0, #66]	@ 0x42
 8003be2:	68d3      	ldr	r3, [r2, #12]
 8003be4:	f043 0302 	orr.w	r3, r3, #2
 8003be8:	60d3      	str	r3, [r2, #12]
 8003bea:	6800      	ldr	r0, [r0, #0]
 8003bec:	2201      	movs	r2, #1
 8003bee:	f7ff ff76 	bl	8003ade <TIM_CCxChannelCmd>
 8003bf2:	4b2d      	ldr	r3, [pc, #180]	@ (8003ca8 <HAL_TIM_IC_Start_IT+0xf0>)
 8003bf4:	4298      	cmp	r0, r3
 8003bf6:	d012      	beq.n	8003c1e <HAL_TIM_IC_Start_IT+0x66>
 8003bf8:	f503 6300 	add.w	r3, r3, #2048	@ 0x800
 8003bfc:	4298      	cmp	r0, r3
 8003bfe:	d00e      	beq.n	8003c1e <HAL_TIM_IC_Start_IT+0x66>
 8003c00:	f1b0 4f80 	cmp.w	r0, #1073741824	@ 0x40000000
 8003c04:	d00b      	beq.n	8003c1e <HAL_TIM_IC_Start_IT+0x66>
 8003c06:	f5a3 3398 	sub.w	r3, r3, #77824	@ 0x13000
 8003c0a:	4298      	cmp	r0, r3
 8003c0c:	d007      	beq.n	8003c1e <HAL_TIM_IC_Start_IT+0x66>
 8003c0e:	f503 6380 	add.w	r3, r3, #1024	@ 0x400
 8003c12:	4298      	cmp	r0, r3
 8003c14:	d003      	beq.n	8003c1e <HAL_TIM_IC_Start_IT+0x66>
 8003c16:	f503 6380 	add.w	r3, r3, #1024	@ 0x400
 8003c1a:	4298      	cmp	r0, r3
 8003c1c:	d13d      	bne.n	8003c9a <HAL_TIM_IC_Start_IT+0xe2>
 8003c1e:	6883      	ldr	r3, [r0, #8]
 8003c20:	f003 0307 	and.w	r3, r3, #7
 8003c24:	2b06      	cmp	r3, #6
 8003c26:	d138      	bne.n	8003c9a <HAL_TIM_IC_Start_IT+0xe2>
 8003c28:	2000      	movs	r0, #0
 8003c2a:	bd08      	pop	{r3, pc}
 8003c2c:	2904      	cmp	r1, #4
 8003c2e:	d105      	bne.n	8003c3c <HAL_TIM_IC_Start_IT+0x84>
 8003c30:	f890 203f 	ldrb.w	r2, [r0, #63]	@ 0x3f
 8003c34:	f890 3043 	ldrb.w	r3, [r0, #67]	@ 0x43
 8003c38:	b2d2      	uxtb	r2, r2
 8003c3a:	e7c5      	b.n	8003bc8 <HAL_TIM_IC_Start_IT+0x10>
 8003c3c:	2908      	cmp	r1, #8
 8003c3e:	bf0b      	itete	eq
 8003c40:	f890 2040 	ldrbeq.w	r2, [r0, #64]	@ 0x40
 8003c44:	f890 2041 	ldrbne.w	r2, [r0, #65]	@ 0x41
 8003c48:	f890 3044 	ldrbeq.w	r3, [r0, #68]	@ 0x44
 8003c4c:	f890 3045 	ldrbne.w	r3, [r0, #69]	@ 0x45
 8003c50:	bf0c      	ite	eq
 8003c52:	b2d2      	uxtbeq	r2, r2
 8003c54:	b2d2      	uxtbne	r2, r2
 8003c56:	e7b7      	b.n	8003bc8 <HAL_TIM_IC_Start_IT+0x10>
 8003c58:	2904      	cmp	r1, #4
 8003c5a:	d108      	bne.n	8003c6e <HAL_TIM_IC_Start_IT+0xb6>
 8003c5c:	6802      	ldr	r2, [r0, #0]
 8003c5e:	f880 303f 	strb.w	r3, [r0, #63]	@ 0x3f
 8003c62:	f880 3043 	strb.w	r3, [r0, #67]	@ 0x43
 8003c66:	68d3      	ldr	r3, [r2, #12]
 8003c68:	f043 0304 	orr.w	r3, r3, #4
 8003c6c:	e7bc      	b.n	8003be8 <HAL_TIM_IC_Start_IT+0x30>
 8003c6e:	2908      	cmp	r1, #8
 8003c70:	d108      	bne.n	8003c84 <HAL_TIM_IC_Start_IT+0xcc>
 8003c72:	6802      	ldr	r2, [r0, #0]
 8003c74:	f880 3040 	strb.w	r3, [r0, #64]	@ 0x40
 8003c78:	f880 3044 	strb.w	r3, [r0, #68]	@ 0x44
 8003c7c:	68d3      	ldr	r3, [r2, #12]
 8003c7e:	f043 0308 	orr.w	r3, r3, #8
 8003c82:	e7b1      	b.n	8003be8 <HAL_TIM_IC_Start_IT+0x30>
 8003c84:	290c      	cmp	r1, #12
 8003c86:	f880 3041 	strb.w	r3, [r0, #65]	@ 0x41
 8003c8a:	f880 3045 	strb.w	r3, [r0, #69]	@ 0x45
 8003c8e:	d109      	bne.n	8003ca4 <HAL_TIM_IC_Start_IT+0xec>
 8003c90:	6802      	ldr	r2, [r0, #0]
 8003c92:	68d3      	ldr	r3, [r2, #12]
 8003c94:	f043 0310 	orr.w	r3, r3, #16
 8003c98:	e7a6      	b.n	8003be8 <HAL_TIM_IC_Start_IT+0x30>
 8003c9a:	6803      	ldr	r3, [r0, #0]
 8003c9c:	f043 0301 	orr.w	r3, r3, #1
 8003ca0:	6003      	str	r3, [r0, #0]
 8003ca2:	e7c1      	b.n	8003c28 <HAL_TIM_IC_Start_IT+0x70>
 8003ca4:	2001      	movs	r0, #1
 8003ca6:	e7c0      	b.n	8003c2a <HAL_TIM_IC_Start_IT+0x72>
 8003ca8:	40012c00 	.word	0x40012c00

08003cac <HAL_TIMEx_MasterConfigSynchronization>:
 8003cac:	b530      	push	{r4, r5, lr}
 8003cae:	f890 303c 	ldrb.w	r3, [r0, #60]	@ 0x3c
 8003cb2:	4602      	mov	r2, r0
 8003cb4:	2b01      	cmp	r3, #1
 8003cb6:	f04f 0002 	mov.w	r0, #2
 8003cba:	d02a      	beq.n	8003d12 <HAL_TIMEx_MasterConfigSynchronization+0x66>
 8003cbc:	6813      	ldr	r3, [r2, #0]
 8003cbe:	f882 003d 	strb.w	r0, [r2, #61]	@ 0x3d
 8003cc2:	685c      	ldr	r4, [r3, #4]
 8003cc4:	680d      	ldr	r5, [r1, #0]
 8003cc6:	f024 0470 	bic.w	r4, r4, #112	@ 0x70
 8003cca:	432c      	orrs	r4, r5
 8003ccc:	6898      	ldr	r0, [r3, #8]
 8003cce:	605c      	str	r4, [r3, #4]
 8003cd0:	4c10      	ldr	r4, [pc, #64]	@ (8003d14 <HAL_TIMEx_MasterConfigSynchronization+0x68>)
 8003cd2:	42a3      	cmp	r3, r4
 8003cd4:	d012      	beq.n	8003cfc <HAL_TIMEx_MasterConfigSynchronization+0x50>
 8003cd6:	f504 6400 	add.w	r4, r4, #2048	@ 0x800
 8003cda:	42a3      	cmp	r3, r4
 8003cdc:	d00e      	beq.n	8003cfc <HAL_TIMEx_MasterConfigSynchronization+0x50>
 8003cde:	f1b3 4f80 	cmp.w	r3, #1073741824	@ 0x40000000
 8003ce2:	d00b      	beq.n	8003cfc <HAL_TIMEx_MasterConfigSynchronization+0x50>
 8003ce4:	f5a4 3498 	sub.w	r4, r4, #77824	@ 0x13000
 8003ce8:	42a3      	cmp	r3, r4
 8003cea:	d007      	beq.n	8003cfc <HAL_TIMEx_MasterConfigSynchronization+0x50>
 8003cec:	f504 6480 	add.w	r4, r4, #1024	@ 0x400
 8003cf0:	42a3      	cmp	r3, r4
 8003cf2:	d003      	beq.n	8003cfc <HAL_TIMEx_MasterConfigSynchronization+0x50>
 8003cf4:	f504 6480 	add.w	r4, r4, #1024	@ 0x400
 8003cf8:	42a3      	cmp	r3, r4
 8003cfa:	d104      	bne.n	8003d06 <HAL_TIMEx_MasterConfigSynchronization+0x5a>
 8003cfc:	6849      	ldr	r1, [r1, #4]
 8003cfe:	f020 0080 	bic.w	r0, r0, #128	@ 0x80
 8003d02:	4301      	orrs	r1, r0
 8003d04:	6099      	str	r1, [r3, #8]
 8003d06:	2301      	movs	r3, #1
 8003d08:	2000      	movs	r0, #0
 8003d0a:	f882 303d 	strb.w	r3, [r2, #61]	@ 0x3d
 8003d0e:	f882 003c 	strb.w	r0, [r2, #60]	@ 0x3c
 8003d12:	bd30      	pop	{r4, r5, pc}
 8003d14:	40012c00 	.word	0x40012c00

08003d18 <HAL_TIMEx_ConfigBreakDeadTime>:
 8003d18:	f890 303c 	ldrb.w	r3, [r0, #60]	@ 0x3c
 8003d1c:	4602      	mov	r2, r0
 8003d1e:	2b01      	cmp	r3, #1
 8003d20:	d01e      	beq.n	8003d60 <HAL_TIMEx_ConfigBreakDeadTime+0x48>
 8003d22:	68cb      	ldr	r3, [r1, #12]
 8003d24:	6888      	ldr	r0, [r1, #8]
 8003d26:	f423 7340 	bic.w	r3, r3, #768	@ 0x300
 8003d2a:	4303      	orrs	r3, r0
 8003d2c:	6848      	ldr	r0, [r1, #4]
 8003d2e:	f423 6380 	bic.w	r3, r3, #1024	@ 0x400
 8003d32:	4303      	orrs	r3, r0
 8003d34:	6808      	ldr	r0, [r1, #0]
 8003d36:	f423 6300 	bic.w	r3, r3, #2048	@ 0x800
 8003d3a:	4303      	orrs	r3, r0
 8003d3c:	6908      	ldr	r0, [r1, #16]
 8003d3e:	f423 5380 	bic.w	r3, r3, #4096	@ 0x1000
 8003d42:	4303      	orrs	r3, r0
 8003d44:	6948      	ldr	r0, [r1, #20]
 8003d46:	f423 5300 	bic.w	r3, r3, #8192	@ 0x2000
 8003d4a:	4303      	orrs	r3, r0
 8003d4c:	2000      	movs	r0, #0
 8003d4e:	69c9      	ldr	r1, [r1, #28]
 8003d50:	f423 4380 	bic.w	r3, r3, #16384	@ 0x4000
 8003d54:	430b      	orrs	r3, r1
 8003d56:	6811      	ldr	r1, [r2, #0]
 8003d58:	644b      	str	r3, [r1, #68]	@ 0x44
 8003d5a:	f882 003c 	strb.w	r0, [r2, #60]	@ 0x3c
 8003d5e:	4770      	bx	lr
 8003d60:	2002      	movs	r0, #2
 8003d62:	4770      	bx	lr

08003d64 <HAL_TIMEx_CommutCallback>:
 8003d64:	4770      	bx	lr

08003d66 <HAL_TIMEx_BreakCallback>:
 8003d66:	4770      	bx	lr

08003d68 <UART_EndRxTransfer>:
 8003d68:	6802      	ldr	r2, [r0, #0]
 8003d6a:	f102 030c 	add.w	r3, r2, #12
 8003d6e:	e853 3f00 	ldrex	r3, [r3]
 8003d72:	f423 7390 	bic.w	r3, r3, #288	@ 0x120
 8003d76:	320c      	adds	r2, #12
 8003d78:	e842 3100 	strex	r1, r3, [r2]
 8003d7c:	6802      	ldr	r2, [r0, #0]
 8003d7e:	2900      	cmp	r1, #0
 8003d80:	d1f2      	bne.n	8003d68 <UART_EndRxTransfer>
 8003d82:	f102 0314 	add.w	r3, r2, #20
 8003d86:	e853 3f00 	ldrex	r3, [r3]
 8003d8a:	f023 0301 	bic.w	r3, r3, #1
 8003d8e:	f102 0c14 	add.w	ip, r2, #20
 8003d92:	e84c 3100 	strex	r1, r3, [ip]
 8003d96:	2900      	cmp	r1, #0
 8003d98:	d1f3      	bne.n	8003d82 <UART_EndRxTransfer+0x1a>
 8003d9a:	6b03      	ldr	r3, [r0, #48]	@ 0x30
 8003d9c:	2b01      	cmp	r3, #1
 8003d9e:	d10b      	bne.n	8003db8 <UART_EndRxTransfer+0x50>
 8003da0:	f102 030c 	add.w	r3, r2, #12
 8003da4:	e853 3f00 	ldrex	r3, [r3]
 8003da8:	f023 0310 	bic.w	r3, r3, #16
 8003dac:	f102 0c0c 	add.w	ip, r2, #12
 8003db0:	e84c 3100 	strex	r1, r3, [ip]
 8003db4:	2900      	cmp	r1, #0
 8003db6:	d1f3      	bne.n	8003da0 <UART_EndRxTransfer+0x38>
 8003db8:	2320      	movs	r3, #32
 8003dba:	f880 3042 	strb.w	r3, [r0, #66]	@ 0x42
 8003dbe:	2300      	movs	r3, #0
 8003dc0:	6303      	str	r3, [r0, #48]	@ 0x30
 8003dc2:	4770      	bx	lr

08003dc4 <UART_SetConfig>:
 8003dc4:	b510      	push	{r4, lr}
 8003dc6:	4604      	mov	r4, r0
 8003dc8:	6803      	ldr	r3, [r0, #0]
 8003dca:	68c1      	ldr	r1, [r0, #12]
 8003dcc:	691a      	ldr	r2, [r3, #16]
 8003dce:	f422 5240 	bic.w	r2, r2, #12288	@ 0x3000
 8003dd2:	430a      	orrs	r2, r1
 8003dd4:	611a      	str	r2, [r3, #16]
 8003dd6:	6882      	ldr	r2, [r0, #8]
 8003dd8:	6900      	ldr	r0, [r0, #16]
 8003dda:	68d9      	ldr	r1, [r3, #12]
 8003ddc:	4302      	orrs	r2, r0
 8003dde:	6960      	ldr	r0, [r4, #20]
 8003de0:	f421 51b0 	bic.w	r1, r1, #5632	@ 0x1600
 8003de4:	f021 010c 	bic.w	r1, r1, #12
 8003de8:	4302      	orrs	r2, r0
 8003dea:	430a      	orrs	r2, r1
 8003dec:	60da      	str	r2, [r3, #12]
 8003dee:	695a      	ldr	r2, [r3, #20]
 8003df0:	69a1      	ldr	r1, [r4, #24]
 8003df2:	f422 7240 	bic.w	r2, r2, #768	@ 0x300
 8003df6:	430a      	orrs	r2, r1
 8003df8:	615a      	str	r2, [r3, #20]
 8003dfa:	4a0e      	ldr	r2, [pc, #56]	@ (8003e34 <UART_SetConfig+0x70>)
 8003dfc:	4293      	cmp	r3, r2
 8003dfe:	d115      	bne.n	8003e2c <UART_SetConfig+0x68>
 8003e00:	f7ff fa62 	bl	80032c8 <HAL_RCC_GetPCLK2Freq>
 8003e04:	2319      	movs	r3, #25
 8003e06:	4343      	muls	r3, r0
 8003e08:	6862      	ldr	r2, [r4, #4]
 8003e0a:	6820      	ldr	r0, [r4, #0]
 8003e0c:	0092      	lsls	r2, r2, #2
 8003e0e:	fbb3 f3f2 	udiv	r3, r3, r2
 8003e12:	2264      	movs	r2, #100	@ 0x64
 8003e14:	fbb3 f1f2 	udiv	r1, r3, r2
 8003e18:	fb02 3311 	mls	r3, r2, r1, r3
 8003e1c:	011b      	lsls	r3, r3, #4
 8003e1e:	3332      	adds	r3, #50	@ 0x32
 8003e20:	fbb3 f3f2 	udiv	r3, r3, r2
 8003e24:	eb03 1301 	add.w	r3, r3, r1, lsl #4
 8003e28:	6083      	str	r3, [r0, #8]
 8003e2a:	bd10      	pop	{r4, pc}
 8003e2c:	f7ff fa3c 	bl	80032a8 <HAL_RCC_GetPCLK1Freq>
 8003e30:	e7e8      	b.n	8003e04 <UART_SetConfig+0x40>
 8003e32:	bf00      	nop
 8003e34:	40013800 	.word	0x40013800

08003e38 <HAL_UART_Init>:
 8003e38:	b510      	push	{r4, lr}
 8003e3a:	4604      	mov	r4, r0
 8003e3c:	b348      	cbz	r0, 8003e92 <HAL_UART_Init+0x5a>
 8003e3e:	f890 3041 	ldrb.w	r3, [r0, #65]	@ 0x41
 8003e42:	f003 02ff 	and.w	r2, r3, #255	@ 0xff
 8003e46:	b91b      	cbnz	r3, 8003e50 <HAL_UART_Init+0x18>
 8003e48:	f880 2040 	strb.w	r2, [r0, #64]	@ 0x40
 8003e4c:	f7fe fac6 	bl	80023dc <HAL_UART_MspInit>
 8003e50:	2324      	movs	r3, #36	@ 0x24
 8003e52:	6822      	ldr	r2, [r4, #0]
 8003e54:	f884 3041 	strb.w	r3, [r4, #65]	@ 0x41
 8003e58:	68d3      	ldr	r3, [r2, #12]
 8003e5a:	4620      	mov	r0, r4
 8003e5c:	f423 5300 	bic.w	r3, r3, #8192	@ 0x2000
 8003e60:	60d3      	str	r3, [r2, #12]
 8003e62:	f7ff ffaf 	bl	8003dc4 <UART_SetConfig>
 8003e66:	6823      	ldr	r3, [r4, #0]
 8003e68:	2000      	movs	r0, #0
 8003e6a:	691a      	ldr	r2, [r3, #16]
 8003e6c:	f422 4290 	bic.w	r2, r2, #18432	@ 0x4800
 8003e70:	611a      	str	r2, [r3, #16]
 8003e72:	695a      	ldr	r2, [r3, #20]
 8003e74:	f022 022a 	bic.w	r2, r2, #42	@ 0x2a
 8003e78:	615a      	str	r2, [r3, #20]
 8003e7a:	68da      	ldr	r2, [r3, #12]
 8003e7c:	f442 5200 	orr.w	r2, r2, #8192	@ 0x2000
 8003e80:	60da      	str	r2, [r3, #12]
 8003e82:	2320      	movs	r3, #32
 8003e84:	6460      	str	r0, [r4, #68]	@ 0x44
 8003e86:	f884 3041 	strb.w	r3, [r4, #65]	@ 0x41
 8003e8a:	f884 3042 	strb.w	r3, [r4, #66]	@ 0x42
 8003e8e:	6360      	str	r0, [r4, #52]	@ 0x34
 8003e90:	bd10      	pop	{r4, pc}
 8003e92:	2001      	movs	r0, #1
 8003e94:	e7fc      	b.n	8003e90 <HAL_UART_Init+0x58>
	...

08003e98 <HAL_UART_Transmit_DMA>:
 8003e98:	b538      	push	{r3, r4, r5, lr}
 8003e9a:	4604      	mov	r4, r0
 8003e9c:	4613      	mov	r3, r2
 8003e9e:	f894 2041 	ldrb.w	r2, [r4, #65]	@ 0x41
 8003ea2:	2a20      	cmp	r2, #32
 8003ea4:	d127      	bne.n	8003ef6 <HAL_UART_Transmit_DMA+0x5e>
 8003ea6:	b341      	cbz	r1, 8003efa <HAL_UART_Transmit_DMA+0x62>
 8003ea8:	b33b      	cbz	r3, 8003efa <HAL_UART_Transmit_DMA+0x62>
 8003eaa:	2200      	movs	r2, #0
 8003eac:	2021      	movs	r0, #33	@ 0x21
 8003eae:	84e3      	strh	r3, [r4, #38]	@ 0x26
 8003eb0:	4d13      	ldr	r5, [pc, #76]	@ (8003f00 <HAL_UART_Transmit_DMA+0x68>)
 8003eb2:	6462      	str	r2, [r4, #68]	@ 0x44
 8003eb4:	f884 0041 	strb.w	r0, [r4, #65]	@ 0x41
 8003eb8:	6ba0      	ldr	r0, [r4, #56]	@ 0x38
 8003eba:	84a3      	strh	r3, [r4, #36]	@ 0x24
 8003ebc:	6221      	str	r1, [r4, #32]
 8003ebe:	6285      	str	r5, [r0, #40]	@ 0x28
 8003ec0:	4d10      	ldr	r5, [pc, #64]	@ (8003f04 <HAL_UART_Transmit_DMA+0x6c>)
 8003ec2:	62c5      	str	r5, [r0, #44]	@ 0x2c
 8003ec4:	4d10      	ldr	r5, [pc, #64]	@ (8003f08 <HAL_UART_Transmit_DMA+0x70>)
 8003ec6:	e9c0 520c 	strd	r5, r2, [r0, #48]	@ 0x30
 8003eca:	6822      	ldr	r2, [r4, #0]
 8003ecc:	3204      	adds	r2, #4
 8003ece:	f7fe fc67 	bl	80027a0 <HAL_DMA_Start_IT>
 8003ed2:	f06f 0240 	mvn.w	r2, #64	@ 0x40
 8003ed6:	6823      	ldr	r3, [r4, #0]
 8003ed8:	601a      	str	r2, [r3, #0]
 8003eda:	6822      	ldr	r2, [r4, #0]
 8003edc:	f102 0314 	add.w	r3, r2, #20
 8003ee0:	e853 3f00 	ldrex	r3, [r3]
 8003ee4:	f043 0380 	orr.w	r3, r3, #128	@ 0x80
 8003ee8:	f102 0114 	add.w	r1, r2, #20
 8003eec:	e841 3000 	strex	r0, r3, [r1]
 8003ef0:	2800      	cmp	r0, #0
 8003ef2:	d1f3      	bne.n	8003edc <HAL_UART_Transmit_DMA+0x44>
 8003ef4:	bd38      	pop	{r3, r4, r5, pc}
 8003ef6:	2002      	movs	r0, #2
 8003ef8:	e7fc      	b.n	8003ef4 <HAL_UART_Transmit_DMA+0x5c>
 8003efa:	2001      	movs	r0, #1
 8003efc:	e7fa      	b.n	8003ef4 <HAL_UART_Transmit_DMA+0x5c>
 8003efe:	bf00      	nop
 8003f00:	08003f0d 	.word	0x08003f0d
 8003f04:	08003f5b 	.word	0x08003f5b
 8003f08:	08003f69 	.word	0x08003f69

08003f0c <UART_DMATransmitCplt>:
 8003f0c:	b508      	push	{r3, lr}
 8003f0e:	4603      	mov	r3, r0
 8003f10:	681b      	ldr	r3, [r3, #0]
 8003f12:	6a40      	ldr	r0, [r0, #36]	@ 0x24
 8003f14:	681b      	ldr	r3, [r3, #0]
 8003f16:	f013 0320 	ands.w	r3, r3, #32
 8003f1a:	d11a      	bne.n	8003f52 <UART_DMATransmitCplt+0x46>
 8003f1c:	84c3      	strh	r3, [r0, #38]	@ 0x26
 8003f1e:	6802      	ldr	r2, [r0, #0]
 8003f20:	f102 0314 	add.w	r3, r2, #20
 8003f24:	e853 3f00 	ldrex	r3, [r3]
 8003f28:	f023 0380 	bic.w	r3, r3, #128	@ 0x80
 8003f2c:	3214      	adds	r2, #20
 8003f2e:	e842 3100 	strex	r1, r3, [r2]
 8003f32:	6802      	ldr	r2, [r0, #0]
 8003f34:	2900      	cmp	r1, #0
 8003f36:	d1f2      	bne.n	8003f1e <UART_DMATransmitCplt+0x12>
 8003f38:	f102 030c 	add.w	r3, r2, #12
 8003f3c:	e853 3f00 	ldrex	r3, [r3]
 8003f40:	f043 0340 	orr.w	r3, r3, #64	@ 0x40
 8003f44:	f102 000c 	add.w	r0, r2, #12
 8003f48:	e840 3100 	strex	r1, r3, [r0]
 8003f4c:	2900      	cmp	r1, #0
 8003f4e:	d1f3      	bne.n	8003f38 <UART_DMATransmitCplt+0x2c>
 8003f50:	bd08      	pop	{r3, pc}
 8003f52:	f7fd fbfb 	bl	800174c <HAL_UART_TxCpltCallback>
 8003f56:	e7fb      	b.n	8003f50 <UART_DMATransmitCplt+0x44>

08003f58 <HAL_UART_TxHalfCpltCallback>:
 8003f58:	4770      	bx	lr

08003f5a <UART_DMATxHalfCplt>:
 8003f5a:	b508      	push	{r3, lr}
 8003f5c:	6a40      	ldr	r0, [r0, #36]	@ 0x24
 8003f5e:	f7ff fffb 	bl	8003f58 <HAL_UART_TxHalfCpltCallback>
 8003f62:	bd08      	pop	{r3, pc}

08003f64 <HAL_UART_RxHalfCpltCallback>:
 8003f64:	4770      	bx	lr

08003f66 <HAL_UART_ErrorCallback>:
 8003f66:	4770      	bx	lr

08003f68 <UART_DMAError>:
 8003f68:	b508      	push	{r3, lr}
 8003f6a:	6a40      	ldr	r0, [r0, #36]	@ 0x24
 8003f6c:	6803      	ldr	r3, [r0, #0]
 8003f6e:	695a      	ldr	r2, [r3, #20]
 8003f70:	f890 1041 	ldrb.w	r1, [r0, #65]	@ 0x41
 8003f74:	2921      	cmp	r1, #33	@ 0x21
 8003f76:	d112      	bne.n	8003f9e <UART_DMAError+0x36>
 8003f78:	0612      	lsls	r2, r2, #24
 8003f7a:	d510      	bpl.n	8003f9e <UART_DMAError+0x36>
 8003f7c:	2200      	movs	r2, #0
 8003f7e:	84c2      	strh	r2, [r0, #38]	@ 0x26
 8003f80:	f103 020c 	add.w	r2, r3, #12
 8003f84:	e852 2f00 	ldrex	r2, [r2]
 8003f88:	f022 02c0 	bic.w	r2, r2, #192	@ 0xc0
 8003f8c:	f103 0c0c 	add.w	ip, r3, #12
 8003f90:	e84c 2100 	strex	r1, r2, [ip]
 8003f94:	2900      	cmp	r1, #0
 8003f96:	d1f3      	bne.n	8003f80 <UART_DMAError+0x18>
 8003f98:	2220      	movs	r2, #32
 8003f9a:	f880 2041 	strb.w	r2, [r0, #65]	@ 0x41
 8003f9e:	695b      	ldr	r3, [r3, #20]
 8003fa0:	f890 2042 	ldrb.w	r2, [r0, #66]	@ 0x42
 8003fa4:	2a22      	cmp	r2, #34	@ 0x22
 8003fa6:	d105      	bne.n	8003fb4 <UART_DMAError+0x4c>
 8003fa8:	065b      	lsls	r3, r3, #25
 8003faa:	d503      	bpl.n	8003fb4 <UART_DMAError+0x4c>
 8003fac:	2300      	movs	r3, #0
 8003fae:	85c3      	strh	r3, [r0, #46]	@ 0x2e
 8003fb0:	f7ff feda 	bl	8003d68 <UART_EndRxTransfer>
 8003fb4:	6c43      	ldr	r3, [r0, #68]	@ 0x44
 8003fb6:	f043 0310 	orr.w	r3, r3, #16
 8003fba:	6443      	str	r3, [r0, #68]	@ 0x44
 8003fbc:	f7ff ffd3 	bl	8003f66 <HAL_UART_ErrorCallback>
 8003fc0:	bd08      	pop	{r3, pc}

08003fc2 <UART_DMAAbortOnError>:
 8003fc2:	b508      	push	{r3, lr}
 8003fc4:	2300      	movs	r3, #0
 8003fc6:	6a40      	ldr	r0, [r0, #36]	@ 0x24
 8003fc8:	85c3      	strh	r3, [r0, #46]	@ 0x2e
 8003fca:	84c3      	strh	r3, [r0, #38]	@ 0x26
 8003fcc:	f7ff ffcb 	bl	8003f66 <HAL_UART_ErrorCallback>
 8003fd0:	bd08      	pop	{r3, pc}

08003fd2 <HAL_UARTEx_RxEventCallback>:
 8003fd2:	4770      	bx	lr

08003fd4 <UART_DMARxHalfCplt>:
 8003fd4:	b508      	push	{r3, lr}
 8003fd6:	2301      	movs	r3, #1
 8003fd8:	6a40      	ldr	r0, [r0, #36]	@ 0x24
 8003fda:	6343      	str	r3, [r0, #52]	@ 0x34
 8003fdc:	6b03      	ldr	r3, [r0, #48]	@ 0x30
 8003fde:	2b01      	cmp	r3, #1
 8003fe0:	d104      	bne.n	8003fec <UART_DMARxHalfCplt+0x18>
 8003fe2:	8d81      	ldrh	r1, [r0, #44]	@ 0x2c
 8003fe4:	0849      	lsrs	r1, r1, #1
 8003fe6:	f7ff fff4 	bl	8003fd2 <HAL_UARTEx_RxEventCallback>
 8003fea:	bd08      	pop	{r3, pc}
 8003fec:	f7ff ffba 	bl	8003f64 <HAL_UART_RxHalfCpltCallback>
 8003ff0:	e7fb      	b.n	8003fea <UART_DMARxHalfCplt+0x16>

08003ff2 <UART_DMAReceiveCplt>:
 8003ff2:	b508      	push	{r3, lr}
 8003ff4:	4603      	mov	r3, r0
 8003ff6:	681b      	ldr	r3, [r3, #0]
 8003ff8:	6a40      	ldr	r0, [r0, #36]	@ 0x24
 8003ffa:	681b      	ldr	r3, [r3, #0]
 8003ffc:	f013 0320 	ands.w	r3, r3, #32
 8004000:	d137      	bne.n	8004072 <UART_DMAReceiveCplt+0x80>
 8004002:	85c3      	strh	r3, [r0, #46]	@ 0x2e
 8004004:	6802      	ldr	r2, [r0, #0]
 8004006:	f102 030c 	add.w	r3, r2, #12
 800400a:	e853 3f00 	ldrex	r3, [r3]
 800400e:	f423 7380 	bic.w	r3, r3, #256	@ 0x100
 8004012:	320c      	adds	r2, #12
 8004014:	e842 3100 	strex	r1, r3, [r2]
 8004018:	6803      	ldr	r3, [r0, #0]
 800401a:	2900      	cmp	r1, #0
 800401c:	d1f2      	bne.n	8004004 <UART_DMAReceiveCplt+0x12>
 800401e:	f103 0214 	add.w	r2, r3, #20
 8004022:	e852 2f00 	ldrex	r2, [r2]
 8004026:	f022 0201 	bic.w	r2, r2, #1
 800402a:	f103 0c14 	add.w	ip, r3, #20
 800402e:	e84c 2100 	strex	r1, r2, [ip]
 8004032:	2900      	cmp	r1, #0
 8004034:	d1f3      	bne.n	800401e <UART_DMAReceiveCplt+0x2c>
 8004036:	f103 0214 	add.w	r2, r3, #20
 800403a:	e852 2f00 	ldrex	r2, [r2]
 800403e:	f022 0240 	bic.w	r2, r2, #64	@ 0x40
 8004042:	f103 0c14 	add.w	ip, r3, #20
 8004046:	e84c 2100 	strex	r1, r2, [ip]
 800404a:	2900      	cmp	r1, #0
 800404c:	d1f3      	bne.n	8004036 <UART_DMAReceiveCplt+0x44>
 800404e:	2220      	movs	r2, #32
 8004050:	f880 2042 	strb.w	r2, [r0, #66]	@ 0x42
 8004054:	6b02      	ldr	r2, [r0, #48]	@ 0x30
 8004056:	2a01      	cmp	r2, #1
 8004058:	d10b      	bne.n	8004072 <UART_DMAReceiveCplt+0x80>
 800405a:	f103 020c 	add.w	r2, r3, #12
 800405e:	e852 2f00 	ldrex	r2, [r2]
 8004062:	f022 0210 	bic.w	r2, r2, #16
 8004066:	f103 0c0c 	add.w	ip, r3, #12
 800406a:	e84c 2100 	strex	r1, r2, [ip]
 800406e:	2900      	cmp	r1, #0
 8004070:	d1f3      	bne.n	800405a <UART_DMAReceiveCplt+0x68>
 8004072:	2300      	movs	r3, #0
 8004074:	6343      	str	r3, [r0, #52]	@ 0x34
 8004076:	6b03      	ldr	r3, [r0, #48]	@ 0x30
 8004078:	2b01      	cmp	r3, #1
 800407a:	d103      	bne.n	8004084 <UART_DMAReceiveCplt+0x92>
 800407c:	8d81      	ldrh	r1, [r0, #44]	@ 0x2c
 800407e:	f7ff ffa8 	bl	8003fd2 <HAL_UARTEx_RxEventCallback>
 8004082:	bd08      	pop	{r3, pc}
 8004084:	f7fd fb68 	bl	8001758 <HAL_UART_RxCpltCallback>
 8004088:	e7fb      	b.n	8004082 <UART_DMAReceiveCplt+0x90>

0800408a <UART_Receive_IT.isra.0>:
 800408a:	f890 3042 	ldrb.w	r3, [r0, #66]	@ 0x42
 800408e:	b507      	push	{r0, r1, r2, lr}
 8004090:	2b22      	cmp	r3, #34	@ 0x22
 8004092:	d142      	bne.n	800411a <UART_Receive_IT.isra.0+0x90>
 8004094:	6881      	ldr	r1, [r0, #8]
 8004096:	6802      	ldr	r2, [r0, #0]
 8004098:	f5b1 5f80 	cmp.w	r1, #4096	@ 0x1000
 800409c:	6a83      	ldr	r3, [r0, #40]	@ 0x28
 800409e:	d13f      	bne.n	8004120 <UART_Receive_IT.isra.0+0x96>
 80040a0:	6901      	ldr	r1, [r0, #16]
 80040a2:	2900      	cmp	r1, #0
 80040a4:	d13f      	bne.n	8004126 <UART_Receive_IT.isra.0+0x9c>
 80040a6:	6852      	ldr	r2, [r2, #4]
 80040a8:	f3c2 0208 	ubfx	r2, r2, #0, #9
 80040ac:	f823 2b02 	strh.w	r2, [r3], #2
 80040b0:	6283      	str	r3, [r0, #40]	@ 0x28
 80040b2:	8dc3      	ldrh	r3, [r0, #46]	@ 0x2e
 80040b4:	3b01      	subs	r3, #1
 80040b6:	b29b      	uxth	r3, r3
 80040b8:	85c3      	strh	r3, [r0, #46]	@ 0x2e
 80040ba:	2b00      	cmp	r3, #0
 80040bc:	d12d      	bne.n	800411a <UART_Receive_IT.isra.0+0x90>
 80040be:	6802      	ldr	r2, [r0, #0]
 80040c0:	68d1      	ldr	r1, [r2, #12]
 80040c2:	f021 0120 	bic.w	r1, r1, #32
 80040c6:	60d1      	str	r1, [r2, #12]
 80040c8:	68d1      	ldr	r1, [r2, #12]
 80040ca:	f421 7180 	bic.w	r1, r1, #256	@ 0x100
 80040ce:	60d1      	str	r1, [r2, #12]
 80040d0:	6951      	ldr	r1, [r2, #20]
 80040d2:	f021 0101 	bic.w	r1, r1, #1
 80040d6:	6151      	str	r1, [r2, #20]
 80040d8:	2220      	movs	r2, #32
 80040da:	f880 2042 	strb.w	r2, [r0, #66]	@ 0x42
 80040de:	6343      	str	r3, [r0, #52]	@ 0x34
 80040e0:	6b02      	ldr	r2, [r0, #48]	@ 0x30
 80040e2:	2a01      	cmp	r2, #1
 80040e4:	6802      	ldr	r2, [r0, #0]
 80040e6:	d128      	bne.n	800413a <UART_Receive_IT.isra.0+0xb0>
 80040e8:	6303      	str	r3, [r0, #48]	@ 0x30
 80040ea:	f102 030c 	add.w	r3, r2, #12
 80040ee:	e853 3f00 	ldrex	r3, [r3]
 80040f2:	f023 0310 	bic.w	r3, r3, #16
 80040f6:	f102 0c0c 	add.w	ip, r2, #12
 80040fa:	e84c 3100 	strex	r1, r3, [ip]
 80040fe:	2900      	cmp	r1, #0
 8004100:	d1f3      	bne.n	80040ea <UART_Receive_IT.isra.0+0x60>
 8004102:	6813      	ldr	r3, [r2, #0]
 8004104:	06db      	lsls	r3, r3, #27
 8004106:	d505      	bpl.n	8004114 <UART_Receive_IT.isra.0+0x8a>
 8004108:	9101      	str	r1, [sp, #4]
 800410a:	6813      	ldr	r3, [r2, #0]
 800410c:	9301      	str	r3, [sp, #4]
 800410e:	6853      	ldr	r3, [r2, #4]
 8004110:	9301      	str	r3, [sp, #4]
 8004112:	9b01      	ldr	r3, [sp, #4]
 8004114:	8d81      	ldrh	r1, [r0, #44]	@ 0x2c
 8004116:	f7ff ff5c 	bl	8003fd2 <HAL_UARTEx_RxEventCallback>
 800411a:	b003      	add	sp, #12
 800411c:	f85d fb04 	ldr.w	pc, [sp], #4
 8004120:	b939      	cbnz	r1, 8004132 <UART_Receive_IT.isra.0+0xa8>
 8004122:	6901      	ldr	r1, [r0, #16]
 8004124:	b929      	cbnz	r1, 8004132 <UART_Receive_IT.isra.0+0xa8>
 8004126:	6852      	ldr	r2, [r2, #4]
 8004128:	b2d2      	uxtb	r2, r2
 800412a:	701a      	strb	r2, [r3, #0]
 800412c:	6a83      	ldr	r3, [r0, #40]	@ 0x28
 800412e:	3301      	adds	r3, #1
 8004130:	e7be      	b.n	80040b0 <UART_Receive_IT.isra.0+0x26>
 8004132:	6852      	ldr	r2, [r2, #4]
 8004134:	f002 027f 	and.w	r2, r2, #127	@ 0x7f
 8004138:	e7f7      	b.n	800412a <UART_Receive_IT.isra.0+0xa0>
 800413a:	f7fd fb0d 	bl	8001758 <HAL_UART_RxCpltCallback>
 800413e:	e7ec      	b.n	800411a <UART_Receive_IT.isra.0+0x90>

08004140 <HAL_UART_IRQHandler>:
 8004140:	6803      	ldr	r3, [r0, #0]
 8004142:	b573      	push	{r0, r1, r4, r5, r6, lr}
 8004144:	681a      	ldr	r2, [r3, #0]
 8004146:	4604      	mov	r4, r0
 8004148:	0716      	lsls	r6, r2, #28
 800414a:	68d9      	ldr	r1, [r3, #12]
 800414c:	695d      	ldr	r5, [r3, #20]
 800414e:	d108      	bne.n	8004162 <HAL_UART_IRQHandler+0x22>
 8004150:	0696      	lsls	r6, r2, #26
 8004152:	d568      	bpl.n	8004226 <HAL_UART_IRQHandler+0xe6>
 8004154:	068d      	lsls	r5, r1, #26
 8004156:	d566      	bpl.n	8004226 <HAL_UART_IRQHandler+0xe6>
 8004158:	b002      	add	sp, #8
 800415a:	e8bd 4070 	ldmia.w	sp!, {r4, r5, r6, lr}
 800415e:	f7ff bf94 	b.w	800408a <UART_Receive_IT.isra.0>
 8004162:	f005 0001 	and.w	r0, r5, #1
 8004166:	f401 7590 	and.w	r5, r1, #288	@ 0x120
 800416a:	4305      	orrs	r5, r0
 800416c:	d05b      	beq.n	8004226 <HAL_UART_IRQHandler+0xe6>
 800416e:	07d6      	lsls	r6, r2, #31
 8004170:	d505      	bpl.n	800417e <HAL_UART_IRQHandler+0x3e>
 8004172:	05cd      	lsls	r5, r1, #23
 8004174:	bf42      	ittt	mi
 8004176:	6c63      	ldrmi	r3, [r4, #68]	@ 0x44
 8004178:	f043 0301 	orrmi.w	r3, r3, #1
 800417c:	6463      	strmi	r3, [r4, #68]	@ 0x44
 800417e:	0753      	lsls	r3, r2, #29
 8004180:	d504      	bpl.n	800418c <HAL_UART_IRQHandler+0x4c>
 8004182:	b118      	cbz	r0, 800418c <HAL_UART_IRQHandler+0x4c>
 8004184:	6c63      	ldr	r3, [r4, #68]	@ 0x44
 8004186:	f043 0302 	orr.w	r3, r3, #2
 800418a:	6463      	str	r3, [r4, #68]	@ 0x44
 800418c:	0796      	lsls	r6, r2, #30
 800418e:	d504      	bpl.n	800419a <HAL_UART_IRQHandler+0x5a>
 8004190:	b118      	cbz	r0, 800419a <HAL_UART_IRQHandler+0x5a>
 8004192:	6c63      	ldr	r3, [r4, #68]	@ 0x44
 8004194:	f043 0304 	orr.w	r3, r3, #4
 8004198:	6463      	str	r3, [r4, #68]	@ 0x44
 800419a:	0715      	lsls	r5, r2, #28
 800419c:	d507      	bpl.n	80041ae <HAL_UART_IRQHandler+0x6e>
 800419e:	f001 0320 	and.w	r3, r1, #32
 80041a2:	4303      	orrs	r3, r0
 80041a4:	bf1e      	ittt	ne
 80041a6:	6c63      	ldrne	r3, [r4, #68]	@ 0x44
 80041a8:	f043 0308 	orrne.w	r3, r3, #8
 80041ac:	6463      	strne	r3, [r4, #68]	@ 0x44
 80041ae:	6c63      	ldr	r3, [r4, #68]	@ 0x44
 80041b0:	2b00      	cmp	r3, #0
 80041b2:	d032      	beq.n	800421a <HAL_UART_IRQHandler+0xda>
 80041b4:	0692      	lsls	r2, r2, #26
 80041b6:	d504      	bpl.n	80041c2 <HAL_UART_IRQHandler+0x82>
 80041b8:	068b      	lsls	r3, r1, #26
 80041ba:	d502      	bpl.n	80041c2 <HAL_UART_IRQHandler+0x82>
 80041bc:	4620      	mov	r0, r4
 80041be:	f7ff ff64 	bl	800408a <UART_Receive_IT.isra.0>
 80041c2:	6826      	ldr	r6, [r4, #0]
 80041c4:	4620      	mov	r0, r4
 80041c6:	6973      	ldr	r3, [r6, #20]
 80041c8:	6c62      	ldr	r2, [r4, #68]	@ 0x44
 80041ca:	f003 0340 	and.w	r3, r3, #64	@ 0x40
 80041ce:	f002 0208 	and.w	r2, r2, #8
 80041d2:	ea53 0502 	orrs.w	r5, r3, r2
 80041d6:	d022      	beq.n	800421e <HAL_UART_IRQHandler+0xde>
 80041d8:	f7ff fdc6 	bl	8003d68 <UART_EndRxTransfer>
 80041dc:	6973      	ldr	r3, [r6, #20]
 80041de:	065e      	lsls	r6, r3, #25
 80041e0:	d518      	bpl.n	8004214 <HAL_UART_IRQHandler+0xd4>
 80041e2:	6822      	ldr	r2, [r4, #0]
 80041e4:	f102 0314 	add.w	r3, r2, #20
 80041e8:	e853 3f00 	ldrex	r3, [r3]
 80041ec:	f023 0340 	bic.w	r3, r3, #64	@ 0x40
 80041f0:	3214      	adds	r2, #20
 80041f2:	e842 3100 	strex	r1, r3, [r2]
 80041f6:	2900      	cmp	r1, #0
 80041f8:	d1f3      	bne.n	80041e2 <HAL_UART_IRQHandler+0xa2>
 80041fa:	6be0      	ldr	r0, [r4, #60]	@ 0x3c
 80041fc:	b150      	cbz	r0, 8004214 <HAL_UART_IRQHandler+0xd4>
 80041fe:	4b74      	ldr	r3, [pc, #464]	@ (80043d0 <HAL_UART_IRQHandler+0x290>)
 8004200:	6343      	str	r3, [r0, #52]	@ 0x34
 8004202:	f7fe fb29 	bl	8002858 <HAL_DMA_Abort_IT>
 8004206:	b140      	cbz	r0, 800421a <HAL_UART_IRQHandler+0xda>
 8004208:	6be0      	ldr	r0, [r4, #60]	@ 0x3c
 800420a:	6b43      	ldr	r3, [r0, #52]	@ 0x34
 800420c:	b002      	add	sp, #8
 800420e:	e8bd 4070 	ldmia.w	sp!, {r4, r5, r6, lr}
 8004212:	4718      	bx	r3
 8004214:	4620      	mov	r0, r4
 8004216:	f7ff fea6 	bl	8003f66 <HAL_UART_ErrorCallback>
 800421a:	b002      	add	sp, #8
 800421c:	bd70      	pop	{r4, r5, r6, pc}
 800421e:	f7ff fea2 	bl	8003f66 <HAL_UART_ErrorCallback>
 8004222:	6465      	str	r5, [r4, #68]	@ 0x44
 8004224:	e7f9      	b.n	800421a <HAL_UART_IRQHandler+0xda>
 8004226:	6b20      	ldr	r0, [r4, #48]	@ 0x30
 8004228:	2801      	cmp	r0, #1
 800422a:	f040 8094 	bne.w	8004356 <HAL_UART_IRQHandler+0x216>
 800422e:	06d5      	lsls	r5, r2, #27
 8004230:	f140 8091 	bpl.w	8004356 <HAL_UART_IRQHandler+0x216>
 8004234:	06c8      	lsls	r0, r1, #27
 8004236:	f140 808e 	bpl.w	8004356 <HAL_UART_IRQHandler+0x216>
 800423a:	2200      	movs	r2, #0
 800423c:	9201      	str	r2, [sp, #4]
 800423e:	681a      	ldr	r2, [r3, #0]
 8004240:	9201      	str	r2, [sp, #4]
 8004242:	685a      	ldr	r2, [r3, #4]
 8004244:	9201      	str	r2, [sp, #4]
 8004246:	9a01      	ldr	r2, [sp, #4]
 8004248:	695a      	ldr	r2, [r3, #20]
 800424a:	0652      	lsls	r2, r2, #25
 800424c:	d54d      	bpl.n	80042ea <HAL_UART_IRQHandler+0x1aa>
 800424e:	6be1      	ldr	r1, [r4, #60]	@ 0x3c
 8004250:	680a      	ldr	r2, [r1, #0]
 8004252:	6852      	ldr	r2, [r2, #4]
 8004254:	b292      	uxth	r2, r2
 8004256:	2a00      	cmp	r2, #0
 8004258:	d0df      	beq.n	800421a <HAL_UART_IRQHandler+0xda>
 800425a:	8da0      	ldrh	r0, [r4, #44]	@ 0x2c
 800425c:	4290      	cmp	r0, r2
 800425e:	d9dc      	bls.n	800421a <HAL_UART_IRQHandler+0xda>
 8004260:	85e2      	strh	r2, [r4, #46]	@ 0x2e
 8004262:	698a      	ldr	r2, [r1, #24]
 8004264:	2a20      	cmp	r2, #32
 8004266:	d036      	beq.n	80042d6 <HAL_UART_IRQHandler+0x196>
 8004268:	f103 020c 	add.w	r2, r3, #12
 800426c:	e852 2f00 	ldrex	r2, [r2]
 8004270:	f422 7280 	bic.w	r2, r2, #256	@ 0x100
 8004274:	f103 000c 	add.w	r0, r3, #12
 8004278:	e840 2100 	strex	r1, r2, [r0]
 800427c:	2900      	cmp	r1, #0
 800427e:	d1f3      	bne.n	8004268 <HAL_UART_IRQHandler+0x128>
 8004280:	f103 0214 	add.w	r2, r3, #20
 8004284:	e852 2f00 	ldrex	r2, [r2]
 8004288:	f022 0201 	bic.w	r2, r2, #1
 800428c:	f103 0014 	add.w	r0, r3, #20
 8004290:	e840 2100 	strex	r1, r2, [r0]
 8004294:	2900      	cmp	r1, #0
 8004296:	d1f3      	bne.n	8004280 <HAL_UART_IRQHandler+0x140>
 8004298:	f103 0214 	add.w	r2, r3, #20
 800429c:	e852 2f00 	ldrex	r2, [r2]
 80042a0:	f022 0240 	bic.w	r2, r2, #64	@ 0x40
 80042a4:	f103 0014 	add.w	r0, r3, #20
 80042a8:	e840 2100 	strex	r1, r2, [r0]
 80042ac:	2900      	cmp	r1, #0
 80042ae:	d1f3      	bne.n	8004298 <HAL_UART_IRQHandler+0x158>
 80042b0:	2220      	movs	r2, #32
 80042b2:	f884 2042 	strb.w	r2, [r4, #66]	@ 0x42
 80042b6:	6321      	str	r1, [r4, #48]	@ 0x30
 80042b8:	f103 020c 	add.w	r2, r3, #12
 80042bc:	e852 2f00 	ldrex	r2, [r2]
 80042c0:	f022 0210 	bic.w	r2, r2, #16
 80042c4:	f103 000c 	add.w	r0, r3, #12
 80042c8:	e840 2100 	strex	r1, r2, [r0]
 80042cc:	2900      	cmp	r1, #0
 80042ce:	d1f3      	bne.n	80042b8 <HAL_UART_IRQHandler+0x178>
 80042d0:	6be0      	ldr	r0, [r4, #60]	@ 0x3c
 80042d2:	f7fe faa1 	bl	8002818 <HAL_DMA_Abort>
 80042d6:	2302      	movs	r3, #2
 80042d8:	6363      	str	r3, [r4, #52]	@ 0x34
 80042da:	8de3      	ldrh	r3, [r4, #46]	@ 0x2e
 80042dc:	8da1      	ldrh	r1, [r4, #44]	@ 0x2c
 80042de:	1ac9      	subs	r1, r1, r3
 80042e0:	b289      	uxth	r1, r1
 80042e2:	4620      	mov	r0, r4
 80042e4:	f7ff fe75 	bl	8003fd2 <HAL_UARTEx_RxEventCallback>
 80042e8:	e797      	b.n	800421a <HAL_UART_IRQHandler+0xda>
 80042ea:	8de2      	ldrh	r2, [r4, #46]	@ 0x2e
 80042ec:	8de0      	ldrh	r0, [r4, #46]	@ 0x2e
 80042ee:	8da1      	ldrh	r1, [r4, #44]	@ 0x2c
 80042f0:	b280      	uxth	r0, r0
 80042f2:	b292      	uxth	r2, r2
 80042f4:	2800      	cmp	r0, #0
 80042f6:	d090      	beq.n	800421a <HAL_UART_IRQHandler+0xda>
 80042f8:	1a89      	subs	r1, r1, r2
 80042fa:	b289      	uxth	r1, r1
 80042fc:	2900      	cmp	r1, #0
 80042fe:	d08c      	beq.n	800421a <HAL_UART_IRQHandler+0xda>
 8004300:	f103 020c 	add.w	r2, r3, #12
 8004304:	e852 2f00 	ldrex	r2, [r2]
 8004308:	f422 7290 	bic.w	r2, r2, #288	@ 0x120
 800430c:	f103 050c 	add.w	r5, r3, #12
 8004310:	e845 2000 	strex	r0, r2, [r5]
 8004314:	2800      	cmp	r0, #0
 8004316:	d1f3      	bne.n	8004300 <HAL_UART_IRQHandler+0x1c0>
 8004318:	f103 0214 	add.w	r2, r3, #20
 800431c:	e852 2f00 	ldrex	r2, [r2]
 8004320:	f022 0201 	bic.w	r2, r2, #1
 8004324:	f103 0514 	add.w	r5, r3, #20
 8004328:	e845 2000 	strex	r0, r2, [r5]
 800432c:	2800      	cmp	r0, #0
 800432e:	d1f3      	bne.n	8004318 <HAL_UART_IRQHandler+0x1d8>
 8004330:	2220      	movs	r2, #32
 8004332:	f884 2042 	strb.w	r2, [r4, #66]	@ 0x42
 8004336:	6320      	str	r0, [r4, #48]	@ 0x30
 8004338:	f103 020c 	add.w	r2, r3, #12
 800433c:	e852 2f00 	ldrex	r2, [r2]
 8004340:	f022 0210 	bic.w	r2, r2, #16
 8004344:	f103 050c 	add.w	r5, r3, #12
 8004348:	e845 2000 	strex	r0, r2, [r5]
 800434c:	2800      	cmp	r0, #0
 800434e:	d1f3      	bne.n	8004338 <HAL_UART_IRQHandler+0x1f8>
 8004350:	2302      	movs	r3, #2
 8004352:	6363      	str	r3, [r4, #52]	@ 0x34
 8004354:	e7c5      	b.n	80042e2 <HAL_UART_IRQHandler+0x1a2>
 8004356:	0616      	lsls	r6, r2, #24
 8004358:	d528      	bpl.n	80043ac <HAL_UART_IRQHandler+0x26c>
 800435a:	060d      	lsls	r5, r1, #24
 800435c:	d526      	bpl.n	80043ac <HAL_UART_IRQHandler+0x26c>
 800435e:	f894 2041 	ldrb.w	r2, [r4, #65]	@ 0x41
 8004362:	2a21      	cmp	r2, #33	@ 0x21
 8004364:	f47f af59 	bne.w	800421a <HAL_UART_IRQHandler+0xda>
 8004368:	68a1      	ldr	r1, [r4, #8]
 800436a:	6a22      	ldr	r2, [r4, #32]
 800436c:	f5b1 5f80 	cmp.w	r1, #4096	@ 0x1000
 8004370:	d117      	bne.n	80043a2 <HAL_UART_IRQHandler+0x262>
 8004372:	6921      	ldr	r1, [r4, #16]
 8004374:	b9a9      	cbnz	r1, 80043a2 <HAL_UART_IRQHandler+0x262>
 8004376:	f832 1b02 	ldrh.w	r1, [r2], #2
 800437a:	f3c1 0108 	ubfx	r1, r1, #0, #9
 800437e:	6059      	str	r1, [r3, #4]
 8004380:	6222      	str	r2, [r4, #32]
 8004382:	8ce2      	ldrh	r2, [r4, #38]	@ 0x26
 8004384:	3a01      	subs	r2, #1
 8004386:	b292      	uxth	r2, r2
 8004388:	84e2      	strh	r2, [r4, #38]	@ 0x26
 800438a:	2a00      	cmp	r2, #0
 800438c:	f47f af45 	bne.w	800421a <HAL_UART_IRQHandler+0xda>
 8004390:	68da      	ldr	r2, [r3, #12]
 8004392:	f022 0280 	bic.w	r2, r2, #128	@ 0x80
 8004396:	60da      	str	r2, [r3, #12]
 8004398:	68da      	ldr	r2, [r3, #12]
 800439a:	f042 0240 	orr.w	r2, r2, #64	@ 0x40
 800439e:	60da      	str	r2, [r3, #12]
 80043a0:	e73b      	b.n	800421a <HAL_UART_IRQHandler+0xda>
 80043a2:	1c51      	adds	r1, r2, #1
 80043a4:	6221      	str	r1, [r4, #32]
 80043a6:	7812      	ldrb	r2, [r2, #0]
 80043a8:	605a      	str	r2, [r3, #4]
 80043aa:	e7ea      	b.n	8004382 <HAL_UART_IRQHandler+0x242>
 80043ac:	0650      	lsls	r0, r2, #25
 80043ae:	f57f af34 	bpl.w	800421a <HAL_UART_IRQHandler+0xda>
 80043b2:	064a      	lsls	r2, r1, #25
 80043b4:	f57f af31 	bpl.w	800421a <HAL_UART_IRQHandler+0xda>
 80043b8:	68da      	ldr	r2, [r3, #12]
 80043ba:	4620      	mov	r0, r4
 80043bc:	f022 0240 	bic.w	r2, r2, #64	@ 0x40
 80043c0:	60da      	str	r2, [r3, #12]
 80043c2:	2320      	movs	r3, #32
 80043c4:	f884 3041 	strb.w	r3, [r4, #65]	@ 0x41
 80043c8:	f7fd f9c0 	bl	800174c <HAL_UART_TxCpltCallback>
 80043cc:	e725      	b.n	800421a <HAL_UART_IRQHandler+0xda>
 80043ce:	bf00      	nop
 80043d0:	08003fc3 	.word	0x08003fc3

080043d4 <UART_Start_Receive_DMA>:
 80043d4:	b573      	push	{r0, r1, r4, r5, r6, lr}
 80043d6:	4613      	mov	r3, r2
 80043d8:	8582      	strh	r2, [r0, #44]	@ 0x2c
 80043da:	2500      	movs	r5, #0
 80043dc:	2222      	movs	r2, #34	@ 0x22
 80043de:	4604      	mov	r4, r0
 80043e0:	6281      	str	r1, [r0, #40]	@ 0x28
 80043e2:	6445      	str	r5, [r0, #68]	@ 0x44
 80043e4:	f880 2042 	strb.w	r2, [r0, #66]	@ 0x42
 80043e8:	6bc0      	ldr	r0, [r0, #60]	@ 0x3c
 80043ea:	4a1d      	ldr	r2, [pc, #116]	@ (8004460 <UART_Start_Receive_DMA+0x8c>)
 80043ec:	6826      	ldr	r6, [r4, #0]
 80043ee:	6282      	str	r2, [r0, #40]	@ 0x28
 80043f0:	4a1c      	ldr	r2, [pc, #112]	@ (8004464 <UART_Start_Receive_DMA+0x90>)
 80043f2:	62c2      	str	r2, [r0, #44]	@ 0x2c
 80043f4:	4a1c      	ldr	r2, [pc, #112]	@ (8004468 <UART_Start_Receive_DMA+0x94>)
 80043f6:	e9c0 250c 	strd	r2, r5, [r0, #48]	@ 0x30
 80043fa:	460a      	mov	r2, r1
 80043fc:	1d31      	adds	r1, r6, #4
 80043fe:	f7fe f9cf 	bl	80027a0 <HAL_DMA_Start_IT>
 8004402:	6823      	ldr	r3, [r4, #0]
 8004404:	9501      	str	r5, [sp, #4]
 8004406:	681a      	ldr	r2, [r3, #0]
 8004408:	9201      	str	r2, [sp, #4]
 800440a:	685a      	ldr	r2, [r3, #4]
 800440c:	9201      	str	r2, [sp, #4]
 800440e:	9a01      	ldr	r2, [sp, #4]
 8004410:	6922      	ldr	r2, [r4, #16]
 8004412:	b15a      	cbz	r2, 800442c <UART_Start_Receive_DMA+0x58>
 8004414:	f103 020c 	add.w	r2, r3, #12
 8004418:	e852 2f00 	ldrex	r2, [r2]
 800441c:	f442 7280 	orr.w	r2, r2, #256	@ 0x100
 8004420:	f103 000c 	add.w	r0, r3, #12
 8004424:	e840 2100 	strex	r1, r2, [r0]
 8004428:	2900      	cmp	r1, #0
 800442a:	d1f3      	bne.n	8004414 <UART_Start_Receive_DMA+0x40>
 800442c:	f103 0214 	add.w	r2, r3, #20
 8004430:	e852 2f00 	ldrex	r2, [r2]
 8004434:	f042 0201 	orr.w	r2, r2, #1
 8004438:	f103 0014 	add.w	r0, r3, #20
 800443c:	e840 2100 	strex	r1, r2, [r0]
 8004440:	2900      	cmp	r1, #0
 8004442:	d1f3      	bne.n	800442c <UART_Start_Receive_DMA+0x58>
 8004444:	f103 0214 	add.w	r2, r3, #20
 8004448:	e852 2f00 	ldrex	r2, [r2]
 800444c:	f042 0240 	orr.w	r2, r2, #64	@ 0x40
 8004450:	f103 0114 	add.w	r1, r3, #20
 8004454:	e841 2000 	strex	r0, r2, [r1]
 8004458:	2800      	cmp	r0, #0
 800445a:	d1f3      	bne.n	8004444 <UART_Start_Receive_DMA+0x70>
 800445c:	b002      	add	sp, #8
 800445e:	bd70      	pop	{r4, r5, r6, pc}
 8004460:	08003ff3 	.word	0x08003ff3
 8004464:	08003fd5 	.word	0x08003fd5
 8004468:	08003f69 	.word	0x08003f69

0800446c <HAL_UART_Receive_DMA>:
 800446c:	b470      	push	{r4, r5, r6}
 800446e:	f890 6042 	ldrb.w	r6, [r0, #66]	@ 0x42
 8004472:	2e20      	cmp	r6, #32
 8004474:	d106      	bne.n	8004484 <HAL_UART_Receive_DMA+0x18>
 8004476:	b141      	cbz	r1, 800448a <HAL_UART_Receive_DMA+0x1e>
 8004478:	b13a      	cbz	r2, 800448a <HAL_UART_Receive_DMA+0x1e>
 800447a:	2400      	movs	r4, #0
 800447c:	6304      	str	r4, [r0, #48]	@ 0x30
 800447e:	bc70      	pop	{r4, r5, r6}
 8004480:	f7ff bfa8 	b.w	80043d4 <UART_Start_Receive_DMA>
 8004484:	2002      	movs	r0, #2
 8004486:	bc70      	pop	{r4, r5, r6}
 8004488:	4770      	bx	lr
 800448a:	2001      	movs	r0, #1
 800448c:	e7fb      	b.n	8004486 <HAL_UART_Receive_DMA+0x1a>
	...

08004490 <calloc>:
 8004490:	4b02      	ldr	r3, [pc, #8]	@ (800449c <calloc+0xc>)
 8004492:	460a      	mov	r2, r1
 8004494:	4601      	mov	r1, r0
 8004496:	6818      	ldr	r0, [r3, #0]
 8004498:	f000 b802 	b.w	80044a0 <_calloc_r>
 800449c:	2000001c 	.word	0x2000001c

080044a0 <_calloc_r>:
 80044a0:	b570      	push	{r4, r5, r6, lr}
 80044a2:	fba1 5402 	umull	r5, r4, r1, r2
 80044a6:	b93c      	cbnz	r4, 80044b8 <_calloc_r+0x18>
 80044a8:	4629      	mov	r1, r5
 80044aa:	f000 f82f 	bl	800450c <_malloc_r>
 80044ae:	4606      	mov	r6, r0
 80044b0:	b928      	cbnz	r0, 80044be <_calloc_r+0x1e>
 80044b2:	2600      	movs	r6, #0
 80044b4:	4630      	mov	r0, r6
 80044b6:	bd70      	pop	{r4, r5, r6, pc}
 80044b8:	220c      	movs	r2, #12
 80044ba:	6002      	str	r2, [r0, #0]
 80044bc:	e7f9      	b.n	80044b2 <_calloc_r+0x12>
 80044be:	462a      	mov	r2, r5
 80044c0:	4621      	mov	r1, r4
 80044c2:	f000 f8ff 	bl	80046c4 <memset>
 80044c6:	e7f5      	b.n	80044b4 <_calloc_r+0x14>

080044c8 <sbrk_aligned>:
 80044c8:	b570      	push	{r4, r5, r6, lr}
 80044ca:	4e0f      	ldr	r6, [pc, #60]	@ (8004508 <sbrk_aligned+0x40>)
 80044cc:	460c      	mov	r4, r1
 80044ce:	6831      	ldr	r1, [r6, #0]
 80044d0:	4605      	mov	r5, r0
 80044d2:	b911      	cbnz	r1, 80044da <sbrk_aligned+0x12>
 80044d4:	f000 f8fe 	bl	80046d4 <_sbrk_r>
 80044d8:	6030      	str	r0, [r6, #0]
 80044da:	4621      	mov	r1, r4
 80044dc:	4628      	mov	r0, r5
 80044de:	f000 f8f9 	bl	80046d4 <_sbrk_r>
 80044e2:	1c43      	adds	r3, r0, #1
 80044e4:	d103      	bne.n	80044ee <sbrk_aligned+0x26>
 80044e6:	f04f 34ff 	mov.w	r4, #4294967295
 80044ea:	4620      	mov	r0, r4
 80044ec:	bd70      	pop	{r4, r5, r6, pc}
 80044ee:	1cc4      	adds	r4, r0, #3
 80044f0:	f024 0403 	bic.w	r4, r4, #3
 80044f4:	42a0      	cmp	r0, r4
 80044f6:	d0f8      	beq.n	80044ea <sbrk_aligned+0x22>
 80044f8:	1a21      	subs	r1, r4, r0
 80044fa:	4628      	mov	r0, r5
 80044fc:	f000 f8ea 	bl	80046d4 <_sbrk_r>
 8004500:	3001      	adds	r0, #1
 8004502:	d1f2      	bne.n	80044ea <sbrk_aligned+0x22>
 8004504:	e7ef      	b.n	80044e6 <sbrk_aligned+0x1e>
 8004506:	bf00      	nop
 8004508:	200043b8 	.word	0x200043b8

0800450c <_malloc_r>:
 800450c:	e92d 43f8 	stmdb	sp!, {r3, r4, r5, r6, r7, r8, r9, lr}
 8004510:	1ccd      	adds	r5, r1, #3
 8004512:	f025 0503 	bic.w	r5, r5, #3
 8004516:	3508      	adds	r5, #8
 8004518:	2d0c      	cmp	r5, #12
 800451a:	bf38      	it	cc
 800451c:	250c      	movcc	r5, #12
 800451e:	2d00      	cmp	r5, #0
 8004520:	4606      	mov	r6, r0
 8004522:	db01      	blt.n	8004528 <_malloc_r+0x1c>
 8004524:	42a9      	cmp	r1, r5
 8004526:	d904      	bls.n	8004532 <_malloc_r+0x26>
 8004528:	230c      	movs	r3, #12
 800452a:	6033      	str	r3, [r6, #0]
 800452c:	2000      	movs	r0, #0
 800452e:	e8bd 83f8 	ldmia.w	sp!, {r3, r4, r5, r6, r7, r8, r9, pc}
 8004532:	f8df 80d4 	ldr.w	r8, [pc, #212]	@ 8004608 <_malloc_r+0xfc>
 8004536:	f000 f869 	bl	800460c <__malloc_lock>
 800453a:	f8d8 3000 	ldr.w	r3, [r8]
 800453e:	461c      	mov	r4, r3
 8004540:	bb44      	cbnz	r4, 8004594 <_malloc_r+0x88>
 8004542:	4629      	mov	r1, r5
 8004544:	4630      	mov	r0, r6
 8004546:	f7ff ffbf 	bl	80044c8 <sbrk_aligned>
 800454a:	1c43      	adds	r3, r0, #1
 800454c:	4604      	mov	r4, r0
 800454e:	d158      	bne.n	8004602 <_malloc_r+0xf6>
 8004550:	f8d8 4000 	ldr.w	r4, [r8]
 8004554:	4627      	mov	r7, r4
 8004556:	2f00      	cmp	r7, #0
 8004558:	d143      	bne.n	80045e2 <_malloc_r+0xd6>
 800455a:	2c00      	cmp	r4, #0
 800455c:	d04b      	beq.n	80045f6 <_malloc_r+0xea>
 800455e:	6823      	ldr	r3, [r4, #0]
 8004560:	4639      	mov	r1, r7
 8004562:	4630      	mov	r0, r6
 8004564:	eb04 0903 	add.w	r9, r4, r3
 8004568:	f000 f8b4 	bl	80046d4 <_sbrk_r>
 800456c:	4581      	cmp	r9, r0
 800456e:	d142      	bne.n	80045f6 <_malloc_r+0xea>
 8004570:	6821      	ldr	r1, [r4, #0]
 8004572:	4630      	mov	r0, r6
 8004574:	1a6d      	subs	r5, r5, r1
 8004576:	4629      	mov	r1, r5
 8004578:	f7ff ffa6 	bl	80044c8 <sbrk_aligned>
 800457c:	3001      	adds	r0, #1
 800457e:	d03a      	beq.n	80045f6 <_malloc_r+0xea>
 8004580:	6823      	ldr	r3, [r4, #0]
 8004582:	442b      	add	r3, r5
 8004584:	6023      	str	r3, [r4, #0]
 8004586:	f8d8 3000 	ldr.w	r3, [r8]
 800458a:	685a      	ldr	r2, [r3, #4]
 800458c:	bb62      	cbnz	r2, 80045e8 <_malloc_r+0xdc>
 800458e:	f8c8 7000 	str.w	r7, [r8]
 8004592:	e00f      	b.n	80045b4 <_malloc_r+0xa8>
 8004594:	6822      	ldr	r2, [r4, #0]
 8004596:	1b52      	subs	r2, r2, r5
 8004598:	d420      	bmi.n	80045dc <_malloc_r+0xd0>
 800459a:	2a0b      	cmp	r2, #11
 800459c:	d917      	bls.n	80045ce <_malloc_r+0xc2>
 800459e:	1961      	adds	r1, r4, r5
 80045a0:	42a3      	cmp	r3, r4
 80045a2:	6025      	str	r5, [r4, #0]
 80045a4:	bf18      	it	ne
 80045a6:	6059      	strne	r1, [r3, #4]
 80045a8:	6863      	ldr	r3, [r4, #4]
 80045aa:	bf08      	it	eq
 80045ac:	f8c8 1000 	streq.w	r1, [r8]
 80045b0:	5162      	str	r2, [r4, r5]
 80045b2:	604b      	str	r3, [r1, #4]
 80045b4:	4630      	mov	r0, r6
 80045b6:	f000 f82f 	bl	8004618 <__malloc_unlock>
 80045ba:	f104 000b 	add.w	r0, r4, #11
 80045be:	1d23      	adds	r3, r4, #4
 80045c0:	f020 0007 	bic.w	r0, r0, #7
 80045c4:	1ac2      	subs	r2, r0, r3
 80045c6:	bf1c      	itt	ne
 80045c8:	1a1b      	subne	r3, r3, r0
 80045ca:	50a3      	strne	r3, [r4, r2]
 80045cc:	e7af      	b.n	800452e <_malloc_r+0x22>
 80045ce:	6862      	ldr	r2, [r4, #4]
 80045d0:	42a3      	cmp	r3, r4
 80045d2:	bf0c      	ite	eq
 80045d4:	f8c8 2000 	streq.w	r2, [r8]
 80045d8:	605a      	strne	r2, [r3, #4]
 80045da:	e7eb      	b.n	80045b4 <_malloc_r+0xa8>
 80045dc:	4623      	mov	r3, r4
 80045de:	6864      	ldr	r4, [r4, #4]
 80045e0:	e7ae      	b.n	8004540 <_malloc_r+0x34>
 80045e2:	463c      	mov	r4, r7
 80045e4:	687f      	ldr	r7, [r7, #4]
 80045e6:	e7b6      	b.n	8004556 <_malloc_r+0x4a>
 80045e8:	461a      	mov	r2, r3
 80045ea:	685b      	ldr	r3, [r3, #4]
 80045ec:	42a3      	cmp	r3, r4
 80045ee:	d1fb      	bne.n	80045e8 <_malloc_r+0xdc>
 80045f0:	2300      	movs	r3, #0
 80045f2:	6053      	str	r3, [r2, #4]
 80045f4:	e7de      	b.n	80045b4 <_malloc_r+0xa8>
 80045f6:	230c      	movs	r3, #12
 80045f8:	4630      	mov	r0, r6
 80045fa:	6033      	str	r3, [r6, #0]
 80045fc:	f000 f80c 	bl	8004618 <__malloc_unlock>
 8004600:	e794      	b.n	800452c <_malloc_r+0x20>
 8004602:	6005      	str	r5, [r0, #0]
 8004604:	e7d6      	b.n	80045b4 <_malloc_r+0xa8>
 8004606:	bf00      	nop
 8004608:	200043bc 	.word	0x200043bc

0800460c <__malloc_lock>:
 800460c:	4801      	ldr	r0, [pc, #4]	@ (8004614 <__malloc_lock+0x8>)
 800460e:	f000 b89b 	b.w	8004748 <__retarget_lock_acquire_recursive>
 8004612:	bf00      	nop
 8004614:	200044fc 	.word	0x200044fc

08004618 <__malloc_unlock>:
 8004618:	4801      	ldr	r0, [pc, #4]	@ (8004620 <__malloc_unlock+0x8>)
 800461a:	f000 b896 	b.w	800474a <__retarget_lock_release_recursive>
 800461e:	bf00      	nop
 8004620:	200044fc 	.word	0x200044fc

08004624 <realloc>:
 8004624:	4b02      	ldr	r3, [pc, #8]	@ (8004630 <realloc+0xc>)
 8004626:	460a      	mov	r2, r1
 8004628:	4601      	mov	r1, r0
 800462a:	6818      	ldr	r0, [r3, #0]
 800462c:	f000 b802 	b.w	8004634 <_realloc_r>
 8004630:	2000001c 	.word	0x2000001c

08004634 <_realloc_r>:
 8004634:	e92d 41f0 	stmdb	sp!, {r4, r5, r6, r7, r8, lr}
 8004638:	4680      	mov	r8, r0
 800463a:	4615      	mov	r5, r2
 800463c:	460c      	mov	r4, r1
 800463e:	b921      	cbnz	r1, 800464a <_realloc_r+0x16>
 8004640:	4611      	mov	r1, r2
 8004642:	e8bd 41f0 	ldmia.w	sp!, {r4, r5, r6, r7, r8, lr}
 8004646:	f7ff bf61 	b.w	800450c <_malloc_r>
 800464a:	b92a      	cbnz	r2, 8004658 <_realloc_r+0x24>
 800464c:	f000 f88c 	bl	8004768 <_free_r>
 8004650:	2400      	movs	r4, #0
 8004652:	4620      	mov	r0, r4
 8004654:	e8bd 81f0 	ldmia.w	sp!, {r4, r5, r6, r7, r8, pc}
 8004658:	f000 f8ce 	bl	80047f8 <_malloc_usable_size_r>
 800465c:	4285      	cmp	r5, r0
 800465e:	4606      	mov	r6, r0
 8004660:	d802      	bhi.n	8004668 <_realloc_r+0x34>
 8004662:	ebb5 0f50 	cmp.w	r5, r0, lsr #1
 8004666:	d8f4      	bhi.n	8004652 <_realloc_r+0x1e>
 8004668:	4629      	mov	r1, r5
 800466a:	4640      	mov	r0, r8
 800466c:	f7ff ff4e 	bl	800450c <_malloc_r>
 8004670:	4607      	mov	r7, r0
 8004672:	2800      	cmp	r0, #0
 8004674:	d0ec      	beq.n	8004650 <_realloc_r+0x1c>
 8004676:	42b5      	cmp	r5, r6
 8004678:	462a      	mov	r2, r5
 800467a:	4621      	mov	r1, r4
 800467c:	bf28      	it	cs
 800467e:	4632      	movcs	r2, r6
 8004680:	f000 f864 	bl	800474c <memcpy>
 8004684:	4621      	mov	r1, r4
 8004686:	4640      	mov	r0, r8
 8004688:	f000 f86e 	bl	8004768 <_free_r>
 800468c:	463c      	mov	r4, r7
 800468e:	e7e0      	b.n	8004652 <_realloc_r+0x1e>

08004690 <memmove>:
 8004690:	4288      	cmp	r0, r1
 8004692:	b510      	push	{r4, lr}
 8004694:	eb01 0402 	add.w	r4, r1, r2
 8004698:	d902      	bls.n	80046a0 <memmove+0x10>
 800469a:	4284      	cmp	r4, r0
 800469c:	4623      	mov	r3, r4
 800469e:	d807      	bhi.n	80046b0 <memmove+0x20>
 80046a0:	1e43      	subs	r3, r0, #1
 80046a2:	42a1      	cmp	r1, r4
 80046a4:	d008      	beq.n	80046b8 <memmove+0x28>
 80046a6:	f811 2b01 	ldrb.w	r2, [r1], #1
 80046aa:	f803 2f01 	strb.w	r2, [r3, #1]!
 80046ae:	e7f8      	b.n	80046a2 <memmove+0x12>
 80046b0:	4601      	mov	r1, r0
 80046b2:	4402      	add	r2, r0
 80046b4:	428a      	cmp	r2, r1
 80046b6:	d100      	bne.n	80046ba <memmove+0x2a>
 80046b8:	bd10      	pop	{r4, pc}
 80046ba:	f813 4d01 	ldrb.w	r4, [r3, #-1]!
 80046be:	f802 4d01 	strb.w	r4, [r2, #-1]!
 80046c2:	e7f7      	b.n	80046b4 <memmove+0x24>

080046c4 <memset>:
 80046c4:	4603      	mov	r3, r0
 80046c6:	4402      	add	r2, r0
 80046c8:	4293      	cmp	r3, r2
 80046ca:	d100      	bne.n	80046ce <memset+0xa>
 80046cc:	4770      	bx	lr
 80046ce:	f803 1b01 	strb.w	r1, [r3], #1
 80046d2:	e7f9      	b.n	80046c8 <memset+0x4>

080046d4 <_sbrk_r>:
 80046d4:	b538      	push	{r3, r4, r5, lr}
 80046d6:	2300      	movs	r3, #0
 80046d8:	4d05      	ldr	r5, [pc, #20]	@ (80046f0 <_sbrk_r+0x1c>)
 80046da:	4604      	mov	r4, r0
 80046dc:	4608      	mov	r0, r1
 80046de:	602b      	str	r3, [r5, #0]
 80046e0:	f7fd ff18 	bl	8002514 <_sbrk>
 80046e4:	1c43      	adds	r3, r0, #1
 80046e6:	d102      	bne.n	80046ee <_sbrk_r+0x1a>
 80046e8:	682b      	ldr	r3, [r5, #0]
 80046ea:	b103      	cbz	r3, 80046ee <_sbrk_r+0x1a>
 80046ec:	6023      	str	r3, [r4, #0]
 80046ee:	bd38      	pop	{r3, r4, r5, pc}
 80046f0:	200044f8 	.word	0x200044f8

080046f4 <__errno>:
 80046f4:	4b01      	ldr	r3, [pc, #4]	@ (80046fc <__errno+0x8>)
 80046f6:	6818      	ldr	r0, [r3, #0]
 80046f8:	4770      	bx	lr
 80046fa:	bf00      	nop
 80046fc:	2000001c 	.word	0x2000001c

08004700 <__libc_init_array>:
 8004700:	b570      	push	{r4, r5, r6, lr}
 8004702:	2600      	movs	r6, #0
 8004704:	4d0c      	ldr	r5, [pc, #48]	@ (8004738 <__libc_init_array+0x38>)
 8004706:	4c0d      	ldr	r4, [pc, #52]	@ (800473c <__libc_init_array+0x3c>)
 8004708:	1b64      	subs	r4, r4, r5
 800470a:	10a4      	asrs	r4, r4, #2
 800470c:	42a6      	cmp	r6, r4
 800470e:	d109      	bne.n	8004724 <__libc_init_array+0x24>
 8004710:	f000 f87a 	bl	8004808 <_init>
 8004714:	2600      	movs	r6, #0
 8004716:	4d0a      	ldr	r5, [pc, #40]	@ (8004740 <__libc_init_array+0x40>)
 8004718:	4c0a      	ldr	r4, [pc, #40]	@ (8004744 <__libc_init_array+0x44>)
 800471a:	1b64      	subs	r4, r4, r5
 800471c:	10a4      	asrs	r4, r4, #2
 800471e:	42a6      	cmp	r6, r4
 8004720:	d105      	bne.n	800472e <__libc_init_array+0x2e>
 8004722:	bd70      	pop	{r4, r5, r6, pc}
 8004724:	f855 3b04 	ldr.w	r3, [r5], #4
 8004728:	4798      	blx	r3
 800472a:	3601      	adds	r6, #1
 800472c:	e7ee      	b.n	800470c <__libc_init_array+0xc>
 800472e:	f855 3b04 	ldr.w	r3, [r5], #4
 8004732:	4798      	blx	r3
 8004734:	3601      	adds	r6, #1
 8004736:	e7f2      	b.n	800471e <__libc_init_array+0x1e>
 8004738:	08004b3c 	.word	0x08004b3c
 800473c:	08004b3c 	.word	0x08004b3c
 8004740:	08004b3c 	.word	0x08004b3c
 8004744:	08004b44 	.word	0x08004b44

08004748 <__retarget_lock_acquire_recursive>:
 8004748:	4770      	bx	lr

0800474a <__retarget_lock_release_recursive>:
 800474a:	4770      	bx	lr

0800474c <memcpy>:
 800474c:	440a      	add	r2, r1
 800474e:	4291      	cmp	r1, r2
 8004750:	f100 33ff 	add.w	r3, r0, #4294967295
 8004754:	d100      	bne.n	8004758 <memcpy+0xc>
 8004756:	4770      	bx	lr
 8004758:	b510      	push	{r4, lr}
 800475a:	f811 4b01 	ldrb.w	r4, [r1], #1
 800475e:	4291      	cmp	r1, r2
 8004760:	f803 4f01 	strb.w	r4, [r3, #1]!
 8004764:	d1f9      	bne.n	800475a <memcpy+0xe>
 8004766:	bd10      	pop	{r4, pc}

08004768 <_free_r>:
 8004768:	b538      	push	{r3, r4, r5, lr}
 800476a:	4605      	mov	r5, r0
 800476c:	2900      	cmp	r1, #0
 800476e:	d040      	beq.n	80047f2 <_free_r+0x8a>
 8004770:	f851 3c04 	ldr.w	r3, [r1, #-4]
 8004774:	1f0c      	subs	r4, r1, #4
 8004776:	2b00      	cmp	r3, #0
 8004778:	bfb8      	it	lt
 800477a:	18e4      	addlt	r4, r4, r3
 800477c:	f7ff ff46 	bl	800460c <__malloc_lock>
 8004780:	4a1c      	ldr	r2, [pc, #112]	@ (80047f4 <_free_r+0x8c>)
 8004782:	6813      	ldr	r3, [r2, #0]
 8004784:	b933      	cbnz	r3, 8004794 <_free_r+0x2c>
 8004786:	6063      	str	r3, [r4, #4]
 8004788:	6014      	str	r4, [r2, #0]
 800478a:	4628      	mov	r0, r5
 800478c:	e8bd 4038 	ldmia.w	sp!, {r3, r4, r5, lr}
 8004790:	f7ff bf42 	b.w	8004618 <__malloc_unlock>
 8004794:	42a3      	cmp	r3, r4
 8004796:	d908      	bls.n	80047aa <_free_r+0x42>
 8004798:	6820      	ldr	r0, [r4, #0]
 800479a:	1821      	adds	r1, r4, r0
 800479c:	428b      	cmp	r3, r1
 800479e:	bf01      	itttt	eq
 80047a0:	6819      	ldreq	r1, [r3, #0]
 80047a2:	685b      	ldreq	r3, [r3, #4]
 80047a4:	1809      	addeq	r1, r1, r0
 80047a6:	6021      	streq	r1, [r4, #0]
 80047a8:	e7ed      	b.n	8004786 <_free_r+0x1e>
 80047aa:	461a      	mov	r2, r3
 80047ac:	685b      	ldr	r3, [r3, #4]
 80047ae:	b10b      	cbz	r3, 80047b4 <_free_r+0x4c>
 80047b0:	42a3      	cmp	r3, r4
 80047b2:	d9fa      	bls.n	80047aa <_free_r+0x42>
 80047b4:	6811      	ldr	r1, [r2, #0]
 80047b6:	1850      	adds	r0, r2, r1
 80047b8:	42a0      	cmp	r0, r4
 80047ba:	d10b      	bne.n	80047d4 <_free_r+0x6c>
 80047bc:	6820      	ldr	r0, [r4, #0]
 80047be:	4401      	add	r1, r0
 80047c0:	1850      	adds	r0, r2, r1
 80047c2:	4283      	cmp	r3, r0
 80047c4:	6011      	str	r1, [r2, #0]
 80047c6:	d1e0      	bne.n	800478a <_free_r+0x22>
 80047c8:	6818      	ldr	r0, [r3, #0]
 80047ca:	685b      	ldr	r3, [r3, #4]
 80047cc:	4408      	add	r0, r1
 80047ce:	6010      	str	r0, [r2, #0]
 80047d0:	6053      	str	r3, [r2, #4]
 80047d2:	e7da      	b.n	800478a <_free_r+0x22>
 80047d4:	d902      	bls.n	80047dc <_free_r+0x74>
 80047d6:	230c      	movs	r3, #12
 80047d8:	602b      	str	r3, [r5, #0]
 80047da:	e7d6      	b.n	800478a <_free_r+0x22>
 80047dc:	6820      	ldr	r0, [r4, #0]
 80047de:	1821      	adds	r1, r4, r0
 80047e0:	428b      	cmp	r3, r1
 80047e2:	bf01      	itttt	eq
 80047e4:	6819      	ldreq	r1, [r3, #0]
 80047e6:	685b      	ldreq	r3, [r3, #4]
 80047e8:	1809      	addeq	r1, r1, r0
 80047ea:	6021      	streq	r1, [r4, #0]
 80047ec:	6063      	str	r3, [r4, #4]
 80047ee:	6054      	str	r4, [r2, #4]
 80047f0:	e7cb      	b.n	800478a <_free_r+0x22>
 80047f2:	bd38      	pop	{r3, r4, r5, pc}
 80047f4:	200043bc 	.word	0x200043bc

080047f8 <_malloc_usable_size_r>:
 80047f8:	f851 3c04 	ldr.w	r3, [r1, #-4]
 80047fc:	1f18      	subs	r0, r3, #4
 80047fe:	2b00      	cmp	r3, #0
 8004800:	bfbc      	itt	lt
 8004802:	580b      	ldrlt	r3, [r1, r0]
 8004804:	18c0      	addlt	r0, r0, r3
 8004806:	4770      	bx	lr

08004808 <_init>:
 8004808:	b5f8      	push	{r3, r4, r5, r6, r7, lr}
 800480a:	bf00      	nop
 800480c:	bcf8      	pop	{r3, r4, r5, r6, r7}
 800480e:	bc08      	pop	{r3}
 8004810:	469e      	mov	lr, r3
 8004812:	4770      	bx	lr

08004814 <_fini>:
 8004814:	b5f8      	push	{r3, r4, r5, r6, r7, lr}
 8004816:	bf00      	nop
 8004818:	bcf8      	pop	{r3, r4, r5, r6, r7}
 800481a:	bc08      	pop	{r3}
 800481c:	469e      	mov	lr, r3
 800481e:	4770      	bx	lr
